(dp0
S'BSD 2-clause'
p1
S'BSD-2-Clause'
p2
sS'Egenix Public License Agreement 1.1.0 (e.g. python-egenix-mx-base) http://www.egenix.com/products/python/mxBase/eGenix.com-Public-License-1.1.0.pdf'
p3
S'SUSE-Egenix-1.1.0'
p4
sS'GNU General Public License version 2 or later'
p5
S'GPL-2.0+'
p6
sS'SPDX does not have this exception'
p7
S'SUSE-GPL-2.0-with-openssl-exception'
p8
sS'AGPL-3.0'
p9
S'AGPL-3.0'
p10
sS"same as ruby's"
p11
S'Ruby'
p12
sS'BSD-3'
p13
S'BSD-3-Clause'
p14
sS'GPLv2+ or Ruby'
p15
S'Ruby'
p16
sS'Inner Net License 2.00'
p17
S'SUSE-Innernet-2.00'
p18
sS'SNIA Public License (https://fedoraproject.org/wiki/Licensing/SNIA_Public_License)'
p19
S'SUSE-SNIA-1.0'
p20
sS'GFDL-1.1+'
p21
S'GFDL-1.1+'
p22
sS'SUSE-GPL-2.0-with-FLOSS-exception'
p23
S'SUSE-GPL-2.0-with-FLOSS-exception'
p24
sS'BSD3'
p25
S'BSD-3-Clause'
p26
sS'SUSE-GPL-3.0-with-template-exception'
p27
S'SUSE-GPL-3.0-with-template-exception'
p28
sS'MakeIndex'
p29
S'MakeIndex'
p30
sS'Artistic'
p31
S'Artistic-1.0'
p32
sS'CPL 1.0'
p33
S'CPL-1.0'
p34
sS'SUSE-LGPL-2.1-with-nokia-exception-1.1'
p35
S'SUSE-LGPL-2.1-with-nokia-exception-1.1'
p36
sS'SUSE-Public-Domain'
p37
S'SUSE-Public-Domain'
p38
sS'MPLv1.1+'
p39
S'MPL-1.1+'
p40
sS'Artistic 2.0'
p41
S'Artistic-2.0'
p42
sS'ASL2'
p43
S'Apache-2.0'
p44
sS'http://pastebin.com/PkSpfTbr (part of spectcl)'
p45
S'SUSE-Xenonsoft-1.00'
p46
sS'SUSE-GPL-3.0+-with-autoconf-exception'
p47
S'SUSE-GPL-3.0+-with-autoconf-exception'
p48
sS'ASLv2.0+'
p49
S'Apache-2.0+'
p50
sS'Artistic-2.0'
p51
S'Artistic-2.0'
p52
sS'PHP-3.01'
p53
S'PHP-3.01'
p54
sS'Apache 1.1 (Indiana University)'
p55
S'Apache-1.1'
p56
sS'Apache Software License ..'
p57
S'Apache-2.0'
p58
sS'LGPL-2.1 with clarifications. See http://qwt.sourceforge.net/'
p59
S'SUSE-QWT-1.0'
p60
sS'LGPL-3.0+'
p61
S'LGPL-3.0+'
p62
sS'SUSE-wxWidgets-3.1'
p63
S'SUSE-wxWidgets-3.1'
p64
sS'GLPv2'
p65
S'GPL-2.0'
p66
sS'Scrot license (advertising clause)'
p67
S'SUSE-Scrot'
p68
sS'Artistic License'
p69
S'Artistic-1.0'
p70
sS'Eclipse Public License'
p71
S'EPL-1.0'
p72
sS'xinetd'
p73
S'xinetd'
p74
sS'SUSE-Apache-2.0+'
p75
S'Apache-2.0+'
p76
sS'CPL-1.0'
p77
S'CPL-1.0'
p78
sNS'Unicode'
p79
sS'SUSE-Freeware'
p80
S'SUSE-Freeware'
p81
sS'MIT license'
p82
S'MIT'
p83
sS'SUSE-CacertRoot'
p84
S'SUSE-CacertRoot'
p85
sS'Freeware'
p86
S'SUSE-Freeware'
p87
sS'GFDLv1.2+'
p88
S'GFDL-1.2+'
p89
sS'SUSE-Manpages'
p90
S'SUSE-Manpages'
p91
sS'Zlib License'
p92
S'Zlib'
p93
sS'SUSE-DMTF'
p94
S'SUSE-DMTF'
p95
sS'http://pastebin.com/cFxX3zCb (probably deprecated but found in docbook-dsssl-stylesheets)'
p96
S'SUSE-XSL-Lint'
p97
sS'SUSE-Gitslave'
p98
S'SUSE-Gitslave'
p99
sS'SIL Open Font License 1.1'
p100
S'OFL-1.1'
p101
sS'SUSE-SNIA-1.1'
p102
S'SUSE-SNIA-1.1'
p103
sS'SUSE-SNIA-1.0'
p104
S'SUSE-SNIA-1.0'
p105
sS'Corresponds to https://fedoraproject.org/wiki/Licensing/IEEEDocLicense'
p106
S'SUSE-IEEE'
p107
sS'GPL-2.0+ or Ruby'
p108
S'Ruby'
p109
sS'AFL-2.1'
p110
S'AFL-2.1'
p111
sS'Common Public License 0.5'
p112
S'SUSE-CPL-0.5'
p113
sS'SUSE-IJG'
p114
S'IJG'
p115
sS'LGPL-2.0+'
p116
S'LGPL-2.0+'
p117
sS'GFDL-1.2+'
p118
S'GFDL-1.2+'
p119
sS'Beerware'
p120
S'Beerware'
p121
sS'PHP-3.0.1'
p122
S'PHP-3.01'
p123
sS'BSD-3-Clause with addition which clarifies the software is not licensed for use in design, build or operation of nuclear facility'
p124
S'SUSE-BSD-3-Clause-with-non-nuclear-addition'
p125
sS'Erlang Public License'
p126
S'ErlPL-1.1'
p127
sS'MOZILLA PUBLIC LICENSE (MPL/NPL)'
p128
S'MPL-1.1'
p129
sS'GNU GPL version 3'
p130
S'GPL-3.0'
p131
sS'GPL-3+'
p132
S'GPL-3.0+'
p133
sS'SNIA 1.1'
p134
S'SUSE-SNIA-1.1'
p135
sS'SUSE-Firmware'
p136
S'SUSE-Firmware'
p137
sS'SUSE-OpenPublication-1.0'
p138
S'SUSE-OpenPublication-1.0'
p139
sS'GPLv2'
p140
S'GPL-2.0'
p141
sS'GPLv3'
p142
S'GPL-3.0'
p143
sS'SUSE-XFree86-with-font-exception'
p144
S'SUSE-XFree86-with-font-exception'
p145
sS'Apache Software License, Version 2.0'
p146
S'Apache-2.0'
p147
sS'GPL-3.0+'
p148
S'GPL-3.0+'
p149
sS'SUSE-CC-Sampling-Plus-1.0'
p150
S'SUSE-CC-Sampling-Plus-1.0'
p151
sS'LGPL v2.0 or later'
p152
S'LGPL-2.0+'
p153
sS'TeX-License ..'
p154
S'LPPL-1.3c'
p155
sS'Vim'
p156
S'Vim'
p157
sS'QPL ..'
p158
S'QPL-1.0'
p159
sS'NonFree licenses'
p160
S'SUSE-NonFree'
p161
sS'Apache-1.1'
p162
S'Apache-1.1'
p163
sS'LGPL v3 or later'
p164
S'LGPL-3.0+'
p165
sS'LGPL-2.0-with-linking-exception'
p166
S'SUSE-LGPL-2.0-with-linking-exception'
p167
sS'LGPL-2.0'
p168
S'LGPL-2.0'
p169
sS'LGPL-2.1'
p170
S'LGPL-2.1'
p171
sS'BSD-2-Clause'
p172
S'BSD-2-Clause'
p173
sS'SUSE-PHP-2.02'
p174
S'SUSE-PHP-2.02'
p175
sS'MS-PL'
p176
S'MS-PL'
p177
sS'X11 MIT'
p178
S'X11'
p179
sS'GNU Lesser General Public License (LGPL), Version 3'
p180
S'LGPL-3.0'
p181
sS'Apache License Version 2.0'
p182
S'Apache-2.0'
p183
sS'GPLv2 or later'
p184
S'GPL-2.0+'
p185
sS'SUSE-Innernet-2.0'
p186
S'SUSE-Innernet-2.0'
p187
sS'ErlPL-1.1'
p188
S'ErlPL-1.1'
p189
sS'GPL-2.0 with linking exception for OSI licenses (see elfutils e.g.)'
p190
S'SUSE-GPL-2.0-with-OSI-exception'
p191
sS'X11'
p192
S'X11'
p193
sS'GPL v3 only'
p194
S'GPL-3.0'
p195
sS'LGPLv2.0+'
p196
S'LGPL-2.0+'
p197
sS'GNU LGPLv2.1'
p198
S'LGPL-2.1'
p199
sS'SUSE-Vim'
p200
S'Vim'
p201
sS'GPL v2+'
p202
S'GPL-2.0+'
p203
sS'This license can _only_ be used for content (i.e. no code, no documentation). Provided there are no restrictions on free (re)distribution of the content, use this license. SUSE-Firmware is a subset of this category.'
p204
S'SUSE-Redistributable-Content'
p205
sS'Inner Net License 2'
p206
S'SUSE-Innernet-2.0'
p207
sS'SUSE-Permissive'
p208
S'SUSE-Permissive'
p209
sS'SUSE-GFDL-1.1+'
p210
S'GFDL-1.1+'
p211
sS'GNU General Public License version 2 or later (GPL v2 or later)'
p212
S'GPL-2.0+'
p213
sS'Artistic license'
p214
S'Artistic-1.0'
p215
sS'Distributed Management Task Force ( see https://fedoraproject.org/wiki/Licensing/DMTF )'
p216
S'SUSE-DMTF'
p217
sS'Python-2.0'
p218
S'Python-2.0'
p219
sS'CC-BY-ND-4.0'
p220
S'CC-BY-ND-4.0'
p221
sS'SUSE-XFree86-1.0'
p222
S'X11'
p223
sS'MPL-1.0'
p224
S'MPL-1.0'
p225
sS'MPL-1.1'
p226
S'MPL-1.1'
p227
sS'BSD 3-Clause'
p228
S'BSD-3-Clause'
p229
sS'LGPLv2+'
p230
S'LGPL-2.1+'
p231
sS'SUSE-CPL-0.5'
p232
S'SUSE-CPL-0.5'
p233
sS'SUSE-Repoze'
p234
S'SUSE-Repoze'
p235
sS'WTFPL'
p236
S'WTFPL'
p237
sS'QPL'
p238
S'QPL-1.0'
p239
sS'W3C Software License'
p240
S'W3C'
p241
sS'AFL 2.1'
p242
S'AFL-2.1'
p243
sS'FDLv1.2+'
p244
S'GFDL-1.2+'
p245
sS'GPL-1.0+'
p246
S'GPL-1.0+'
p247
sS'ASL 2.0'
p248
S'Apache-2.0'
p249
sS'SUSE-GPL-2.0-with-plugin-exception'
p250
S'SUSE-GPL-2.0-with-plugin-exception'
p251
sS'SUSE-GPL-3.0+-with-openssl-exception'
p252
S'SUSE-GPL-3.0+-with-openssl-exception'
p253
sS'SUSE-Xenonsoft-1.00'
p254
S'SUSE-Xenonsoft-1.00'
p255
sS'LGPL v2.1+'
p256
S'LGPL-2.1+'
p257
sS'Creative Commons Sampling Plus 1.0'
p258
S'SUSE-CC-Sampling-Plus-1.0'
p259
sS'SUSE-Permissive-Modify-By-Patch'
p260
S'SUSE-Permissive-Modify-By-Patch'
p261
sS'openldap 2.8'
p262
S'OLDAP-2.8'
p263
sS'SUSE-Scrot'
p264
S'SUSE-Scrot'
p265
sS'GPLv2+ with openssl linking exception'
p266
S'SUSE-GPL-2.0+-with-openssl-exception'
p267
sS'SUSE-SIP'
p268
S'SUSE-SIP'
p269
sS'SUSE-Beerware'
p270
S'Beerware'
p271
sS'IPA'
p272
S'IPA'
p273
sS'See for example, the "FHS" license here: https://launchpad.net/ubuntu/precise/+source/debian-policy/+copyright'
p274
S'SUSE-FHS'
p275
sS'GNU General Public License version 2 or later (GPLv2 or later)'
p276
S'GPL-2.0+'
p277
sS'W3C'
p278
S'W3C'
p279
sS'GPL v3 or later'
p280
S'GPL-3.0+'
p281
sS'BSD-3-Clause'
p282
S'BSD-3-Clause'
p283
sS'IPL-1.0'
p284
S'IPL-1.0'
p285
sS'Freeware license'
p286
S'SUSE-Freeware'
p287
sS'Artistic 1.0'
p288
S'Artistic-1.0'
p289
sS'IBM PL'
p290
S'IPL-1.0'
p291
sS'NetCDF'
p292
S'NetCDF'
p293
sS'Apache v2.0'
p294
S'Apache-2.0'
p295
sS'SUSE-GPL-2.0-with-OSI-exception'
p296
S'SUSE-GPL-2.0-with-OSI-exception'
p297
sS'Freetype'
p298
S'SUSE-Freetype'
p299
sS'IBM Public License ..'
p300
S'IPL-1.0'
p301
sS'GPL-2.0'
p302
S'GPL-2.0'
p303
sS'ZPL'
p304
S'ZPL-2.0'
p305
sS'CPL (Common Public License) v1'
p306
S'CPL-1.0'
p307
sS'SUSE-Free-Art-1.3'
p308
S'SUSE-Free-Art-1.3'
p309
sS'Copyright holder expressly allows GPL-2.0 component to be linked with components which are not GPL compatible'
p310
S'SUSE-GPL-2.0-with-linking-exception'
p311
sS'SUSE-Qhull'
p312
S'Qhull'
p313
sS'Similar to LGPL-2.1 but without sections 3 and 13'
p314
S'SUSE-Gitslave'
p315
sS'CC-BY-SA-4.0'
p316
S'CC-BY-SA-4.0'
p317
sS'BSD-Mark-Modifications'
p318
S'SUSE-BSD-Mark-Modifications'
p319
sS'SUSE-SGI-FreeB-2.0'
p320
S'SUSE-SGI-FreeB-2.0'
p321
sS'SUSE-Curb'
p322
S'SUSE-Curb'
p323
sS'Common Public License - v 1.0'
p324
S'CPL-1.0'
p325
sS'MPL 1.1 or later'
p326
S'MPL-1.1+'
p327
sS'GPL-3.0 with exceptions for certain FLOSS licenses'
p328
S'SUSE-GPL-3.0-with-FLOSS-exception'
p329
sS'XFree86 with exception to clarify that a document embedding such fonts does not need to be licensed under the XFree86 license'
p330
S'SUSE-XFree86-with-font-exception'
p331
sS'CC-BY-SA-2.5'
p332
S'CC-BY-SA-2.5'
p333
sS'MgOpen Fonts license (similar to Bitstream Vera but with additional language)'
p334
S'SUSE-MgOpen'
p335
sS'Oasis-Specification-Notice'
p336
S'SUSE-Oasis-Specification-Notice'
p337
sS'SUSE-SLIB'
p338
S'SUSE-SLIB'
p339
sS'SUSE-Oasis-Specification-Notice'
p340
S'SUSE-Oasis-Specification-Notice'
p341
sS'CPL 1.0 ...'
p342
S'CPL-1.0'
p343
sS'GPL v3'
p344
S'GPL-3.0'
p345
sS'GPL v2'
p346
S'GPL-2.0'
p347
sS'BSD-3-clause (or similar)'
p348
S'BSD-3-Clause'
p349
sS'LPPL-1.3c'
p350
S'LPPL-1.3c'
p351
sS'ISC'
p352
S'ISC'
p353
sS'CDDL-1.0'
p354
S'CDDL-1.0'
p355
sS'SUSE End User License Agreement'
p356
S'SUSE-EULA'
p357
sS'MPL-1.1+'
p358
S'MPL-1.1+'
p359
sS'Public domain'
p360
S'SUSE-Public-Domain'
p361
sS'PHP License'
p362
S'PHP-3.01'
p363
sS'GPL-2.0+'
p364
S'GPL-2.0+'
p365
sS'SUSE-BSD-3-Clause-with-non-nuclear-addition'
p366
S'SUSE-BSD-3-Clause-with-non-nuclear-addition'
p367
sS'GNU Free Documentation License, Version 1.3 (GFDL 1.3)'
p368
S'GFDL-1.3'
p369
sS'MIT/X Consortium License'
p370
S'X11'
p371
sS'Common Public License Version 1.0'
p372
S'CPL-1.0'
p373
sS'GNU General Public License version 3 (GPLv3)'
p374
S'GPL-3.0'
p375
sS'SUSE-mplus'
p376
S'SUSE-mplus'
p377
sS'ZPL-2.0'
p378
S'ZPL-2.0'
p379
sS'ZPL-2.1'
p380
S'ZPL-2.1'
p381
sS'SUSE-IEEE'
p382
S'SUSE-IEEE'
p383
sS'qtcreator November 2012'
p384
S'SUSE-LGPL-2.1-with-digia-exception-1.1'
p385
sS'GNU General Public License (GPL) v2'
p386
S'GPL-2.0'
p387
sS'Common Public License v1.0 (CPL)'
p388
S'CPL-1.0'
p389
sS'Apache License'
p390
S'Apache-2.0'
p391
sS'SUSE-GPL-2.0+-with-openssl-exception'
p392
S'SUSE-GPL-2.0+-with-openssl-exception'
p393
sS'SUSE-GL2PS-2.0'
p394
S'SUSE-GL2PS-2.0'
p395
sS'Qhull'
p396
S'Qhull'
p397
sS'OML'
p398
S'OML'
p399
sS'LGPL-2.1+'
p400
S'LGPL-2.1+'
p401
sS'SUSE-GPL-3.0-with-openssl-exception'
p402
S'SUSE-GPL-3.0-with-openssl-exception'
p403
sS'Expat License'
p404
S'MIT'
p405
sS'AGPLv3+'
p406
S'AGPL-3.0+'
p407
sS'SUSE-GFDL-1.2+'
p408
S'GFDL-1.2+'
p409
sS'SUSE-Innernet-2.00'
p410
S'SUSE-Innernet-2.00'
p411
sS'Ms-Pl'
p412
S'MS-PL'
p413
sS'SUSE-Copyleft-Next-0.3.0'
p414
S'SUSE-Copyleft-Next-0.3.0'
p415
sS'SUSE-Liberation'
p416
S'SUSE-Liberation'
p417
sS'New BSD License'
p418
S'BSD-3-Clause'
p419
sS'Artistic-1.0+'
p420
S'Artistic-1.0+'
p421
sS'GPL+'
p422
S'GPL-1.0+'
p423
sS'GPLv3+ with openssl linking exception'
p424
S'SUSE-GPL-3.0+-with-openssl-exception'
p425
sS'MIT License (or similar)'
p426
S'MIT'
p427
sS'GFDL-1.3+'
p428
S'GFDL-1.3+'
p429
sS'zlib'
p430
S'Zlib'
p431
sS'GPL3'
p432
S'GPL-3.0'
p433
sS'GPL2'
p434
S'GPL-2.0'
p435
sS'ZPL 2.1'
p436
S'ZPL-2.1'
p437
sS'SUSE-TeX'
p438
S'SUSE-TeX'
p439
sS'SUSE-mirror'
p440
S'SUSE-mirror'
p441
sS'SUSE-xinetd'
p442
S'xinetd'
p443
sS'The Apache Software License'
p444
S'Apache-2.0'
p445
sS'CC BY-SA V3.0'
p446
S'CC-BY-SA-3.0'
p447
sS'LGPL v2 or later'
p448
S'LGPL-2.0+'
p449
sS'GPL-3'
p450
S'GPL-3.0'
p451
sS'GPL-2'
p452
S'GPL-2.0'
p453
sS'APL-1.0 (spdx.org/licenses)'
p454
S'APL-1.0'
p455
sS'Apache License 2.0'
p456
S'Apache-2.0'
p457
sS'AGPL-3.0+'
p458
S'AGPL-3.0+'
p459
sS'SUSE-FHS'
p460
S'SUSE-FHS'
p461
sS'GFDLv1.2'
p462
S'GFDL-1.2'
p463
sS'FDL v1.1 or later'
p464
S'GFDL-1.1+'
p465
sS'GFDLv1.1'
p466
S'GFDL-1.1'
p467
sS'MIT License'
p468
S'MIT'
p469
sS'GPLv3+'
p470
S'GPL-3.0+'
p471
sS'CC BY-SA 3.0'
p472
S'CC-BY-SA-3.0'
p473
sS'GNU General Public License version 2 (GPL v2)'
p474
S'GPL-2.0'
p475
sS'Open Public License 1.0'
p476
S'OPL-1.0'
p477
sS'SUSE-TGPPL-1.0'
p478
S'SUSE-TGPPL-1.0'
p479
sS'LGPLv2.1'
p480
S'LGPL-2.1'
p481
sS'LGPLv2.0'
p482
S'LGPL-2.0'
p483
sS'SUSE-Python-1.6'
p484
S'SUSE-Python-1.6'
p485
sS'SUSE-QWT-1.0'
p486
S'SUSE-QWT-1.0'
p487
sS'MIT licence'
p488
S'MIT'
p489
sS'Copyright (C) 1999-2007 Norman Walsh'
p490
S'SUSE-Docbook-XSL'
p491
sS'SUSE-MgOpen'
p492
S'SUSE-MgOpen'
p493
sS'SUSE-WTFPL-2.0'
p494
S'WTFPL'
p495
sS'Apache Software License'
p496
S'Apache-2.0'
p497
sS'BSD 3-clause (or similar)'
p498
S'BSD-3-Clause'
p499
sS'OFL'
p500
S'OFL-1.1'
p501
sS'SUSE-GPL-2.0-with-linking-exception'
p502
S'SUSE-GPL-2.0-with-linking-exception'
p503
sS'LGPLv2+ with GCC exception'
p504
S'SUSE-LGPL-2.1+-with-GCC-exception'
p505
sS'libGeoIPUpdate is GPLv2 or later'
p506
S'GPL-2.0+'
p507
sS'Public Domain'
p508
S'SUSE-Public-Domain'
p509
sS'BSD 2 clause'
p510
S'BSD-2-Clause'
p511
sS'GPLv3+ with exceptions'
p512
S'SUSE-GPL-3.0+-with-autoconf-exception'
p513
sS'BSD4c'
p514
S'BSD-4-Clause'
p515
sS'SUSE-LGPL-2.1-with-digia-exception-1.1'
p516
S'SUSE-LGPL-2.1-with-digia-exception-1.1'
p517
sS'SUSE-Gnuplot'
p518
S'SUSE-Gnuplot'
p519
sS'See e.g. dh-make from debian (debian/copyright)'
p520
S'SUSE-GPL-3.0-with-template-exception'
p521
sS'LGPL-2.0.1 or later'
p522
S'LGPL-2.1+'
p523
sS'LGPLv3'
p524
S'LGPL-3.0'
p525
sS'LGPLv2'
p526
S'LGPL-2.0'
p527
sS'Public Domain. See http://www.sentex.ca/~mw'
p528
S'SUSE-Public-Domain'
p529
sS'MIT/X License'
p530
S'X11'
p531
sS'License of the mirror package is quite liberal but prohibits distribution of modified versions. Instead, you should distribute modifications as patches. This is permitted by Section 4 of the Open Source Definition'
p532
S'SUSE-mirror'
p533
sS'BSD (3-Clause)'
p534
S'BSD-3-Clause'
p535
sS'BSD3c (or similar)'
p536
S'BSD-3-Clause'
p537
sS'GPL-2.0-with-FLOSS-exception'
p538
S'SUSE-GPL-2.0-with-FLOSS-exception'
p539
sS'Common Public License v1.0'
p540
S'CPL-1.0'
p541
sS'SUSE-Docbook-XSL'
p542
S'SUSE-Docbook-XSL'
p543
sS'SUSE-IBPL-1.0'
p544
S'SUSE-IBPL-1.0'
p545
sS'EPL-1'
p546
S'EPL-1.0'
p547
sS'MIT'
p548
S'MIT'
p549
sS'TCL'
p550
S'TCL'
p551
sS'OPL-1.0'
p552
S'OPL-1.0'
p553
sS'FDL-1.2+'
p554
S'GFDL-1.2+'
p555
sS'GNU GPL v2'
p556
S'GPL-2.0'
p557
sS'IBM Public License'
p558
S'IPL-1.0'
p559
sS'SUSE-LGPL-2.0-with-linking-exception'
p560
S'SUSE-LGPL-2.0-with-linking-exception'
p561
sS'Python ..'
p562
S'Python-2.0'
p563
sS'SUSE-Sun-Laboratories'
p564
S'SUSE-Sun-Laboratories'
p565
sS'LGPL v2.0 only'
p566
S'LGPL-2.0'
p567
sS'SUSE-LDPL-2.0'
p568
S'SUSE-LDPL-2.0'
p569
sS'PSF'
p570
S'Python-2.0'
p571
sS'Unicode'
p572
S'Unicode'
p573
sS'Public Domain License'
p574
S'SUSE-Public-Domain'
p575
sS'Fltk'
p576
S'SUSE-FLTK'
p577
sS'Eclipse Public License 1.0'
p578
S'EPL-1.0'
p579
sS'Zope Public License'
p580
S'ZPL-2.0'
p581
sS'SUSE-Arphic'
p582
S'SUSE-Arphic'
p583
sS'AGPLv3'
p584
S'AGPL-3.0'
p585
sS'LGPL v2+'
p586
S'LGPL-2.1+'
p587
sS'BSD3c(or similar)'
p588
S'BSD-3-Clause'
p589
sS'BSD3c'
p590
S'BSD-3-Clause'
p591
sS'Firmware license, redistributable unmodified'
p592
S'SUSE-Firmware'
p593
sS'Artistic-1.0'
p594
S'Artistic-1.0'
p595
sS'see IPA_Font_License_Agreement_v1.0.txt'
p596
S'IPA'
p597
sS'E.g. python -matplotlib -> LICENSE/LICENSE'
p598
S'SUSE-Matplotlib'
p599
sS'JSON'
p600
S'JSON'
p601
sS'SUSE-OSL-1.1'
p602
S'OSL-1.1'
p603
sS'GFDL-1.3'
p604
S'GFDL-1.3'
p605
sS'GFDL-1.2'
p606
S'GFDL-1.2'
p607
sS'GFDL-1.1'
p608
S'GFDL-1.1'
p609
sS'GFDL v1.1'
p610
S'GFDL-1.1'
p611
sS'GFDL v1.2'
p612
S'GFDL-1.2'
p613
sS'CC by-sa V2.5'
p614
S'CC-BY-SA-2.5'
p615
sS'SUSE-GPL-2.0+-with-sane-exception'
p616
S'SUSE-GPL-2.0+-with-sane-exception'
p617
sS'GPLv3 with openssl linking exception (see e.g. courier-authlib 0.64.0)'
p618
S'SUSE-GPL-3.0-with-openssl-exception'
p619
sS'SUSE-Sendmail'
p620
S'Sendmail'
p621
sS'SUSE-Redistributable-Content'
p622
S'SUSE-Redistributable-Content'
p623
sS'LPPL ..'
p624
S'LPPL-1.3c'
p625
sS'BSD 2-Clause'
p626
S'BSD-2-Clause'
p627
sS'Expat'
p628
S'MIT'
p629
sS'SUSE-GPL-3.0-with-font-exception'
p630
S'SUSE-GPL-3.0-with-font-exception'
p631
sS'Many GPL-2.0 licensed applications grant an exception that permits non-free plugins (e.g. from gstreamer) to be linked against them'
p632
S'SUSE-GPL-2.0-with-plugin-exception'
p633
sS'Eclipse-1.0'
p634
S'EPL-1.0'
p635
sS'CDDL 1.0'
p636
S'CDDL-1.0'
p637
sS'BSD-2c'
p638
S'BSD-2-Clause'
p639
sS'Apache-2.0'
p640
S'Apache-2.0'
p641
sS'LGPL 2.1'
p642
S'LGPL-2.1'
p643
sS'APL-1.0'
p644
S'APL-1.0'
p645
sS'Python'
p646
S'Python-2.0'
p647
sS'LGPL v2.1'
p648
S'LGPL-2.1'
p649
sS'Academic Free License 2.1'
p650
S'AFL-2.1'
p651
sS'LGPL v2'
p652
S'LGPL-2.0'
p653
sS'Similar to SUSE-Permissive but copyright holder has specified that modification is only allowed by patch'
p654
S'SUSE-Permissive-Modify-By-Patch'
p655
sS'MPLv1.1'
p656
S'MPL-1.1'
p657
sS'MPLv1.0'
p658
S'MPL-1.0'
p659
sS'SUSE-NetCDF'
p660
S'NetCDF'
p661
sS'LGPL V2+'
p662
S'LGPL-2.1+'
p663
sS'SUSE-GFDL-1.3+'
p664
S'GFDL-1.3+'
p665
sS'SUSE-JSON'
p666
S'JSON'
p667
sS'LiberationFontsLicense (Fedora calls this the Liberation license - it will be easier to get it upstream if we adopt that)'
p668
S'SUSE-Liberation'
p669
sS'e.g python-psycopg2'
p670
S'SUSE-LGPL-3.0-with-openssl-exception'
p671
sS'EPL v1.0'
p672
S'EPL-1.0'
p673
sS'Fedora calls this MIT (it is very similar to the MIT)'
p674
S'SUSE-SGI-FreeB-2.0'
p675
sS'Mozilla Public License 1.1'
p676
S'MPL-1.1'
p677
sS'GPL 2.0'
p678
S'GPL-2.0'
p679
sS'GNU Lesser General Public License version 3 (LGPL v3)'
p680
S'LGPL-3.0'
p681
sS'X11 (BSD like)'
p682
S'X11'
p683
sS'Tracked by Fedora as OldFSFDocLicense (see https://fedoraproject.org/wiki/Licensing:OldFSFDocLicense?rd=Licensing/OldFSFDocLicense)'
p684
S'SUSE-OldFSFDocLicense'
p685
sS'EPL'
p686
S'EPL-1.0'
p687
sS'EPL 1.0 ...'
p688
S'EPL-1.0'
p689
sS'SUSE-IDPL-1.0'
p690
S'SUSE-IDPL-1.0'
p691
sS'BSD4c(or similar)'
p692
S'BSD-4-Clause'
p693
sS'SUSE-GPL-3.0+-with-font-exception'
p694
S'SUSE-GPL-3.0+-with-font-exception'
p695
sS'Apache 2.0'
p696
S'Apache-2.0'
p697
sS'PHP 2.02'
p698
S'SUSE-PHP-2.02'
p699
sS'GPLv2+'
p700
S'GPL-2.0+'
p701
sS'ASLv2.0'
p702
S'Apache-2.0'
p703
sS'Part of the license choice in libqt4'
p704
S'SUSE-LGPL-2.1-with-nokia-exception-1.1'
p705
sS'GNU LGPL v2.1 or later'
p706
S'LGPL-2.1+'
p707
sS'OFL-1.1'
p708
S'OFL-1.1'
p709
sS'GPL v2.0 or later'
p710
S'GPL-2.0+'
p711
sS'SUSE-OML'
p712
S'OML'
p713
sS'LGPL-3.0'
p714
S'LGPL-3.0'
p715
sS'Common Public License Version 1.0 (CPL1.0)'
p716
S'CPL-1.0'
p717
sS'SUSE-NonFree'
p718
S'SUSE-NonFree'
p719
sS'GPL-3.0-with-font-exception'
p720
S'SUSE-GPL-3.0-with-font-exception'
p721
sS'SUSE-MPL-1.1+'
p722
S'MPL-1.1+'
p723
sS'ASLv..'
p724
S'Apache-2.0'
p725
sS'SUSE-AGPL-3.0+'
p726
S'AGPL-3.0+'
p727
sS'QPL-1.0'
p728
S'QPL-1.0'
p729
sS'X11/MIT'
p730
S'X11'
p731
sS'GNU Lesser General Public License version 2.1 (LGPL v2.1)'
p732
S'LGPL-2.1'
p733
sS'LGPL v2.1 or later'
p734
S'LGPL-2.1+'
p735
sS'CDDL'
p736
S'CDDL-1.0'
p737
sS'http://opencontent.org/openpub/ - note this is not the OPL-1.0'
p738
S'SUSE-OpenPublication-1.0'
p739
sS'ASL 1.1'
p740
S'Apache-1.1'
p741
sS'CNRI (http://www.handle.net/python_licenses/python1.6_9-5-00.html)'
p742
S'SUSE-Python-1.6'
p743
sS'SIL Open Font License'
p744
S'OFL-1.1'
p745
sS'EPL-1.0'
p746
S'EPL-1.0'
p747
sS'Ruby'
p748
S'Ruby'
p749
sS'GNU Free Documentation License, Version 1.2 (GFDL 1.2)'
p750
S'GFDL-1.2'
p751
sS'SUSE-GPL-3.0-with-FLOSS-exception'
p752
S'SUSE-GPL-3.0-with-FLOSS-exception'
p753
sS'SUSE-LGPL-3.0-with-openssl-exception'
p754
S'SUSE-LGPL-3.0-with-openssl-exception'
p755
sS'GPL-2.0 or later'
p756
S'GPL-2.0+'
p757
sS"Must not be copyleft. Must not contain patent clauses of any nature. Most not limit ability to copy, modifiy, distribute (through multiple tiers of distribution) and distribute modified versions. Must not impose obligations such as 'advertising clauses' or anything that could be viewed as an 'additional restriction' under GPL-2.0+ or GPL-3.0+. Must not impose obligations such as modification by patch only, or reciprocal clauses."
p758
S'SUSE-Permissive'
p759
sS'GNU GPL v3 or later'
p760
S'GPL-3.0+'
p761
sS'Apache-2.0+'
p762
S'Apache-2.0+'
p763
sS'Manpages licenses (linux man pages e.g.)'
p764
S'SUSE-Manpages'
p765
sS'GPLv3+ with exceptions (Fedora)'
p766
S'SUSE-GPL-3.0+-with-font-exception'
p767
sS'ASLv2'
p768
S'Apache-2.0'
p769
sS'GPL v2 or later  '
p770
S'GPL-2.0+'
p771
sS'FDL-1.3+'
p772
S'GFDL-1.3+'
p773
sS'GPL v2 only'
p774
S'GPL-2.0'
p775
sS'BSD 2 Clause'
p776
S'BSD-2-Clause'
p777
sS'GFDL 1.1'
p778
S'GFDL-1.1'
p779
sS'GFDL 1.2'
p780
S'GFDL-1.2'
p781
sS'Sane contains many files with an exception to permit linking against proprietary libraries'
p782
S'SUSE-GPL-2.0+-with-sane-exception'
p783
sS'GPL v2.0'
p784
S'GPL-2.0'
p785
sS'GPL 3'
p786
S'GPL-3.0'
p787
sS'OLDAP-2.8'
p788
S'OLDAP-2.8'
p789
sS'SUSE-Bitstream-Vera'
p790
S'SUSE-Bitstream-Vera'
p791
sS'SUSE-Freetype'
p792
S'SUSE-Freetype'
p793
sS'SUSE-EULA'
p794
S'SUSE-EULA'
p795
sS'Sendmail'
p796
S'Sendmail'
p797
sS'SUSE-TCL'
p798
S'TCL'
p799
sS'Artistic License ..'
p800
S'Artistic-1.0'
p801
sS'ISC License'
p802
S'ISC'
p803
sS'GPL-3.0'
p804
S'GPL-3.0'
p805
sS'SUSE-OldFSFDocLicense'
p806
S'SUSE-OldFSFDocLicense'
p807
sS'GPL-2+'
p808
S'GPL-2.0+'
p809
sS'Perl License'
p810
S'Artistic-1.0 or GPL-1.0+'
p811
sS'Artistic-1.0 or GPL-1.0+'
p812
S'Artistic-1.0 or GPL-1.0+'
p813
sS'LGPL2.1'
p814
S'LGPL-2.1'
p815
sS'Python Software Foundation License'
p816
S'Python-2.0'
p817
sS'SUSE-XSL-Lint'
p818
S'SUSE-XSL-Lint'
p819
sS'MIT-Licence'
p820
S'MIT'
p821
sS'SUSE-FLTK'
p822
S'SUSE-FLTK'
p823
sS'SUSE-BSD-Mark-Modifications'
p824
S'SUSE-BSD-Mark-Modifications'
p825
sS'CC-BY-SA-3.0'
p826
S'CC-BY-SA-3.0'
p827
sS'SUSE-GPL-2.0-with-openssl-exception'
p828
S'SUSE-GPL-2.0-with-openssl-exception'
p829
sS'BSD-4-Clause'
p830
S'BSD-4-Clause'
p831
sS'GNU Free Documentation License, Version 1.1 (GFDL 1.1)'
p832
S'GFDL-1.1'
p833
sS'Open Font License'
p834
S'OFL-1.1'
p835
sS'Gnuplot'
p836
S'SUSE-Gnuplot'
p837
sS'GPLv1+'
p838
S'GPL-1.0+'
p839
sS'Public Domain, Freeware'
p840
S'SUSE-Public-Domain'
p841
sS'SUSE-Artistic-1.0+'
p842
S'Artistic-1.0+'
p843
sS'EPL 1.0'
p844
S'EPL-1.0'
p845
sS'Apache License, Version 2.0'
p846
S'Apache-2.0'
p847
sS'SUSE-Ubuntu-Font-License-1.0'
p848
S'SUSE-Ubuntu-Font-License-1.0'
p849
sS'LGPLv2.1+'
p850
S'LGPL-2.1+'
p851
sS'SUSE-LGPL-2.1+-with-GCC-exception'
p852
S'SUSE-LGPL-2.1+-with-GCC-exception'
p853
sS'Python License ..'
p854
S'Python-2.0'
p855
sS'zlib/libpng License'
p856
S'Zlib'
p857
sS'SUSE-Hack-Open-Font-2.0'
p858
S'SUSE-Hack-Open-Font-2.0'
p859
sS'SUSE-Matplotlib'
p860
S'SUSE-Matplotlib'
p861
sS'LGPLv3+'
p862
S'LGPL-3.0+'
p863
sS'Zlib'
p864
S'Zlib'
p865
sS'Python Copyright'
p866
S'Python-2.0'
p867
sS'LGPL v2.1 only'
p868
S'LGPL-2.1'
p869
sS'MIT/X11'
p870
S'X11'
p871
sS'MPLv1.1 ..'
p872
S'MPL-1.1'
p873
sS'Affero GPL'
p874
S'AGPL-3.0'
p875
sS'GPL2+'
p876
S'GPL-2.0+'
p877
sS'The PHP License, version 3.01'
p878
S'PHP-3.01'
p879
sS'SUSE-MakeIndex'
p880
S'MakeIndex'
p881
sS'SUSE-Xano'
p882
S'SUSE-Xano'
p883
sS'BSD2c'
p884
S'BSD-2-Clause'
p885
sS'SUSE-Egenix-1.1.0'
p886
S'SUSE-Egenix-1.1.0'
p887
sS'IJG'
p888
S'IJG'
p889
sS'OSL-1.1'
p890
S'OSL-1.1'
p891
s.