(dp0
S'BSD 2-clause'
p1
S'BSD-2-Clause'
p2
sS'Egenix Public License Agreement 1.1.0 (e.g. python-egenix-mx-base) http://www.egenix.com/products/python/mxBase/eGenix.com-Public-License-1.1.0.pdf'
p3
S'SUSE-Egenix-1.1.0'
p4
sS'BSL-1.0'
p5
S'BSL-1.0'
p6
sS'SPDX does not have this exception'
p7
S'SUSE-GPL-2.0-with-openssl-exception'
p8
sS'AGPL-3.0'
p9
S'AGPL-3.0'
p10
sS'Libpng'
p11
S'Libpng'
p12
sS'BSD-3'
p13
S'BSD-3-Clause'
p14
sS'GPLv2+ or Ruby'
p15
S'Ruby'
p16
sS'Inner Net License 2.00'
p17
S'SUSE-Innernet-2.00'
p18
sS'SNIA Public License (https://fedoraproject.org/wiki/Licensing/SNIA_Public_License)'
p19
S'SUSE-SNIA-1.0'
p20
sS'NASA-1.3'
p21
S'NASA-1.3'
p22
sS'BSD3'
p23
S'BSD-3-Clause'
p24
sS'GNU General Public License version 2 or later'
p25
S'GPL-2.0+'
p26
sS'APSL-2.0'
p27
S'APSL-2.0'
p28
sS'GPL v2+'
p29
S'GPL-2.0+'
p30
sS'Artistic'
p31
S'Artistic-1.0'
p32
sS'CPL 1.0'
p33
S'CPL-1.0'
p34
sS'LPL-1.0'
p35
S'LPL-1.0'
p36
sS'CATOSL-1.1'
p37
S'CATOSL-1.1'
p38
sS'MPLv1.1+'
p39
S'MPL-1.1+'
p40
sS'Artistic 2.0'
p41
S'Artistic-2.0'
p42
sS'ASL2'
p43
S'Apache-2.0'
p44
sS'http://pastebin.com/PkSpfTbr (part of spectcl)'
p45
S'SUSE-Xenonsoft-1.00'
p46
sS'SAX-PD'
p47
S'SAX-PD'
p48
sS'ASLv2.0+'
p49
S'Apache-2.0+'
p50
sS'Artistic-2.0'
p51
S'Artistic-2.0'
p52
sS'Apache 1.1 (Indiana University)'
p53
S'Apache-1.1'
p54
sS'Apache Software License ..'
p55
S'Apache-2.0'
p56
sS'CC-BY-NC-SA-2.0'
p57
S'CC-BY-NC-SA-2.0'
p58
sS'CC-BY-NC-SA-2.5'
p59
S'CC-BY-NC-SA-2.5'
p60
sS'LGPL-3.0+'
p61
S'LGPL-3.0+'
p62
sS'ECL-1.0'
p63
S'ECL-1.0'
p64
sS'GLPv2'
p65
S'GPL-2.0'
p66
sS'Artistic License'
p67
S'Artistic-1.0'
p68
sS'Eclipse Public License'
p69
S'EPL-1.0'
p70
sS'SUSE-Apache-2.0+'
p71
S'Apache-2.0+'
p72
sS'CPL-1.0'
p73
S'CPL-1.0'
p74
sS'JPEG License'
p75
S'SUSE-IJG'
p76
sS'MIT license'
p77
S'MIT'
p78
sS'GPL-3.0-with-autoconf-exception'
p79
S'GPL-3.0-with-autoconf-exception'
p80
sS'Freeware'
p81
S'SUSE-Freeware'
p82
sS'GFDLv1.2+'
p83
S'GFDL-1.2+'
p84
sS'CC-BY-2.0'
p85
S'CC-BY-2.0'
p86
sS'Zlib License'
p87
S'Zlib'
p88
sS'CC-BY-2.5'
p89
S'CC-BY-2.5'
p90
sS'http://pastebin.com/cFxX3zCb (probably deprecated but found in docbook-dsssl-stylesheets)'
p91
S'SUSE-XSL-Lint'
p92
sS'GPL-2.0-with-font-exception'
p93
S'GPL-2.0-with-font-exception'
p94
sS'BSD-Mark-Modifications'
p95
S'SUSE-BSD-Mark-Modifications'
p96
sS'MIT licence'
p97
S'MIT'
p98
sS'GPL-2.0-with-autoconf-exception'
p99
S'GPL-2.0-with-autoconf-exception'
p100
sS'GPL-2.0+ or Ruby'
p101
S'Ruby'
p102
sS'EFL-2.0'
p103
S'EFL-2.0'
p104
sS'AFL-2.1'
p105
S'AFL-2.1'
p106
sS'AFL-2.0'
p107
S'AFL-2.0'
p108
sS'Common Public License 0.5'
p109
S'SUSE-CPL-0.5'
p110
sS'LGPL-2.0+'
p111
S'LGPL-2.0+'
p112
sS'Copyright (C) 1999-2007 Norman Walsh'
p113
S'SUSE-Docbook-XSL'
p114
sS'Entessa'
p115
S'Entessa'
p116
sS'PHP-3.0.1'
p117
S'PHP-3.01'
p118
sS'BSD-3-Clause with addition which clarifies the software is not licensed for use in design, build or operation of nuclear facility'
p119
S'SUSE-BSD-3-Clause-with-non-nuclear-addition'
p120
sS'Erlang Public License'
p121
S'ErlPL-1.1'
p122
sS'MOZILLA PUBLIC LICENSE (MPL/NPL)'
p123
S'MPL-1.1'
p124
sS'GNU GPL version 3'
p125
S'GPL-3.0'
p126
sS'NTP'
p127
S'NTP'
p128
sS'Naumen'
p129
S'Naumen'
p130
sS'GPL-3+'
p131
S'GPL-3.0+'
p132
sS'SNIA 1.1'
p133
S'SUSE-SNIA-1.1'
p134
sS'WXwindows'
p135
S'WXwindows'
p136
sS'SPL-1.0'
p137
S'SPL-1.0'
p138
sS'GPLv2'
p139
S'GPL-2.0'
p140
sS'GPLv3'
p141
S'GPL-3.0'
p142
sS'Apache Software License, Version 2.0'
p143
S'Apache-2.0'
p144
sS'GPL-3.0+'
p145
S'GPL-3.0+'
p146
sS'LGPL v2.0 or later'
p147
S'LGPL-2.0+'
p148
sS'TeX-License ..'
p149
S'LPPL-1.3c'
p150
sS'QPL ..'
p151
S'QPL-1.0'
p152
sS'NonFree licenses'
p153
S'SUSE-NonFree'
p154
sS'RHeCos-1.1'
p155
S'RHeCos-1.1'
p156
sS'Apache-1.0'
p157
S'Apache-1.0'
p158
sS'OpenSSL'
p159
S'OpenSSL'
p160
sS'OSL-2.0'
p161
S'OSL-2.0'
p162
sS'OSL-2.1'
p163
S'OSL-2.1'
p164
sS'LGPL v3 or later'
p165
S'LGPL-3.0+'
p166
sS'LGPL-2.0'
p167
S'LGPL-2.0'
p168
sS'LGPL-2.1'
p169
S'LGPL-2.1'
p170
sS'BSD-2-Clause'
p171
S'BSD-2-Clause'
p172
sS'MS-PL'
p173
S'MS-PL'
p174
sS'X11 MIT'
p175
S'X11'
p176
sS'GNU Lesser General Public License (LGPL), Version 3'
p177
S'LGPL-3.0'
p178
sS'Apache License Version 2.0'
p179
S'Apache-2.0'
p180
sS'GPLv2 or later'
p181
S'GPL-2.0+'
p182
sS'ErlPL-1.1'
p183
S'ErlPL-1.1'
p184
sS'GPL-2.0 with linking exception for OSI licenses (see elfutils e.g.)'
p185
S'SUSE-GPL-2.0-with-OSI-exception'
p186
sS'X11'
p187
S'X11'
p188
sS'GPL v3 only'
p189
S'GPL-3.0'
p190
sNS'SUSE-Xano'
p191
sS'LGPLv2.0+'
p192
S'LGPL-2.0+'
p193
sS'FDL-1.3+'
p194
S'GFDL-1.3+'
p195
sS'SUSE-Vim'
p196
S'SUSE-Vim'
p197
sS'EFL-1.0'
p198
S'EFL-1.0'
p199
sS'This license can _only_ be used for content (i.e. no code, no documentation). Provided there are no restrictions on free (re)distribution of the content, use this license. SUSE-Firmware is a subset of this category.'
p200
S'SUSE-Redistributable-Content'
p201
sS'Inner Net License 2'
p202
S'SUSE-Innernet-2.0'
p203
sS'XFree86-1.1'
p204
S'XFree86-1.1'
p205
sS'SUSE-GFDL-1.1+'
p206
S'GFDL-1.1+'
p207
sS'GNU General Public License version 2 or later (GPL v2 or later)'
p208
S'GPL-2.0+'
p209
sS'CECILL-C'
p210
S'CECILL-C'
p211
sS'CECILL-B'
p212
S'CECILL-B'
p213
sS'Distributed Management Task Force ( see https://fedoraproject.org/wiki/Licensing/DMTF )'
p214
S'SUSE-DMTF'
p215
sS'Python-2.0'
p216
S'Python-2.0'
p217
sS'Apache-1.1'
p218
S'Apache-1.1'
p219
sS'CC0-1.0'
p220
S'CC0-1.0'
p221
sS'MPL-1.0'
p222
S'MPL-1.0'
p223
sS'AFL-3.0'
p224
S'AFL-3.0'
p225
sS'LPL-1.02'
p226
S'LPL-1.02'
p227
sS'BSD 3-Clause'
p228
S'BSD-3-Clause'
p229
sS'LGPLv2+'
p230
S'LGPL-2.1+'
p231
sS'Similar to SUSE-Permissive but copyright holder has specified that modification is only allowed by patch'
p232
S'SUSE-Permissive-Modify-By-Patch'
p233
sS'QPL'
p234
S'QPL-1.0'
p235
sS'W3C Software License'
p236
S'W3C'
p237
sS'AFL 2.1'
p238
S'AFL-2.1'
p239
sS'FDLv1.2+'
p240
S'GFDL-1.2+'
p241
sS'Watcom-1.0'
p242
S'Watcom-1.0'
p243
sS'ASL 2.0'
p244
S'Apache-2.0'
p245
sS'CC-BY-NC-1.0'
p246
S'CC-BY-NC-1.0'
p247
sS'LGPL v2.1+'
p248
S'LGPL-2.1+'
p249
sS'CECILL-2.0'
p250
S'CECILL-2.0'
p251
sS'openldap 2.8'
p252
S'OLDAP-2.8'
p253
sS'GPLv2+ with openssl linking exception'
p254
S'SUSE-GPL-2.0+-with-openssl-exception'
p255
sS'IPA'
p256
S'IPA'
p257
sS'CNRI-Python'
p258
S'CNRI-Python'
p259
sS'See for example, the "FHS" license here: https://launchpad.net/ubuntu/precise/+source/debian-policy/+copyright'
p260
S'SUSE-FHS'
p261
sS'GNU General Public License version 2 or later (GPLv2 or later)'
p262
S'GPL-2.0+'
p263
sS'GPL v3 or later'
p264
S'GPL-3.0+'
p265
sS'BSD-3-Clause'
p266
S'BSD-3-Clause'
p267
sS'IPL-1.0'
p268
S'IPL-1.0'
p269
sS'Freeware license'
p270
S'SUSE-Freeware'
p271
sS'CC-BY-ND-1.0'
p272
S'CC-BY-ND-1.0'
p273
sS'Artistic 1.0'
p274
S'Artistic-1.0'
p275
sS'IBM PL'
p276
S'IPL-1.0'
p277
sS'GPL v2 or later'
p278
S'GPL-2.0+'
p279
sS'ODbL-1.0'
p280
S'ODbL-1.0'
p281
sS'Apache v2.0'
p282
S'Apache-2.0'
p283
sS'Freetype'
p284
S'SUSE-Freetype'
p285
sS'IBM Public License ..'
p286
S'IPL-1.0'
p287
sS'GPL-2.0'
p288
S'GPL-2.0'
p289
sS'ZPL'
p290
S'ZPL-2.0'
p291
sS'CPL (Common Public License) v1'
p292
S'CPL-1.0'
p293
sS'SUSE-GPL-2.0-with-FLOSS-exception'
p294
S'SUSE-GPL-2.0-with-FLOSS-exception'
p295
sS'OGTSL'
p296
S'OGTSL'
p297
sS'SIL Open Font License 1.1'
p298
S'OFL-1.1'
p299
sS'Common Public License - v 1.0'
p300
S'CPL-1.0'
p301
sS'MPL 1.1 or later'
p302
S'MPL-1.1+'
p303
sS'CC-BY-SA-2.0'
p304
S'CC-BY-SA-2.0'
p305
sS'GPL-3.0 with exceptions for certain FLOSS licenses'
p306
S'SUSE-GPL-3.0-with-FLOSS-exception'
p307
sS'XFree86 with exception to clarify that a document embedding such fonts does not need to be licensed under the XFree86 license'
p308
S'SUSE-XFree86-with-font-exception'
p309
sS'CC-BY-SA-2.5'
p310
S'CC-BY-SA-2.5'
p311
sS'MgOpen Fonts license (similar to Bitstream Vera but with additional language)'
p312
S'SUSE-MgOpen'
p313
sS'Motosoto'
p314
S'Motosoto'
p315
sS'ImageMagick'
p316
S'SUSE-ImageMagick'
p317
sS'CPL 1.0 ...'
p318
S'CPL-1.0'
p319
sS'GPL v3'
p320
S'GPL-3.0'
p321
sS'GPL v2'
p322
S'GPL-2.0'
p323
sS'BSD-3-clause (or similar)'
p324
S'BSD-3-Clause'
p325
sS'LPPL-1.3c'
p326
S'LPPL-1.3c'
p327
sS'ISC'
p328
S'ISC'
p329
sS'CDDL-1.0'
p330
S'CDDL-1.0'
p331
sS'Public domain'
p332
S'SUSE-Public-Domain'
p333
sS'PHP License'
p334
S'PHP-3.01'
p335
sS'JSON License (http://www.json.org/license.html) - also the license of jslint'
p336
S'SUSE-JSON'
p337
sS'GNU Free Documentation License, Version 1.3 (GFDL 1.3)'
p338
S'GFDL-1.3'
p339
sS'Xnet'
p340
S'Xnet'
p341
sS'MIT/X Consortium License'
p342
S'X11'
p343
sS'Common Public License Version 1.0'
p344
S'CPL-1.0'
p345
sS'HPND'
p346
S'HPND'
p347
sS'GNU General Public License version 3 (GPLv3)'
p348
S'GPL-3.0'
p349
sS'ZPL-2.0'
p350
S'ZPL-2.0'
p351
sS'ZPL-2.1'
p352
S'ZPL-2.1'
p353
sS'qtcreator November 2012'
p354
S'SUSE-LGPL-2.1-with-digia-exception-1.1'
p355
sS'GNU General Public License (GPL) v2'
p356
S'GPL-2.0'
p357
sS'Common Public License v1.0 (CPL)'
p358
S'CPL-1.0'
p359
sS'Apache License'
p360
S'Apache-2.0'
p361
sS'LGPL v2.1 only'
p362
S'LGPL-2.1'
p363
sS'Qhull'
p364
S'SUSE-Qhull'
p365
sS'LGPL-2.1+'
p366
S'LGPL-2.1+'
p367
sS'Expat License'
p368
S'MIT'
p369
sS'AGPLv3+'
p370
S'AGPL-3.0+'
p371
sS'SUSE-GFDL-1.2+'
p372
S'GFDL-1.2+'
p373
sS'GPL-2.0-with-classpath-exception'
p374
S'GPL-2.0-with-classpath-exception'
p375
sS'Ms-Pl'
p376
S'MS-PL'
p377
sS'GPL-3.0-with-GCC-exception'
p378
S'GPL-3.0-with-GCC-exception'
p379
sS'AAL'
p380
S'AAL'
p381
sS'New BSD License'
p382
S'BSD-3-Clause'
p383
sS'GPL+'
p384
S'GPL-1.0+'
p385
sS'GPLv3+ with openssl linking exception'
p386
S'SUSE-GPL-3.0+-with-openssl-exception'
p387
sS'GPL 2.0'
p388
S'GPL-2.0'
p389
sS'zlib'
p390
S'Zlib'
p391
sS'GPL3'
p392
S'GPL-3.0'
p393
sS'GPL2'
p394
S'GPL-2.0'
p395
sS'ZPL 2.1'
p396
S'ZPL-2.1'
p397
sS'The Apache Software License'
p398
S'Apache-2.0'
p399
sS'CC BY-SA V3.0'
p400
S'CC-BY-SA-3.0'
p401
sS'NGPL'
p402
S'NGPL'
p403
sS'SugarCRM-1.1.3'
p404
S'SugarCRM-1.1.3'
p405
sS'CECILL-1.1English'
p406
S'CECILL-1.1English'
p407
sS'LGPL v2 or later'
p408
S'LGPL-2.0+'
p409
sS'EUDatagrid'
p410
S'EUDatagrid'
p411
sS'GPL-3'
p412
S'GPL-3.0'
p413
sS'GPL-2'
p414
S'GPL-2.0'
p415
sS'GPL-2.0-with-GCC-exception'
p416
S'GPL-2.0-with-GCC-exception'
p417
sS'CC-BY-NC-ND-1.0'
p418
S'CC-BY-NC-ND-1.0'
p419
sS'CC-BY-ND-3.0'
p420
S'CC-BY-ND-3.0'
p421
sS'APL-1.0 (spdx.org/licenses)'
p422
S'APL-1.0'
p423
sS'Apache License 2.0'
p424
S'Apache-2.0'
p425
sS'CC-BY-NC-ND-3.0'
p426
S'CC-BY-NC-ND-3.0'
p427
sS'GFDLv1.2'
p428
S'GFDL-1.2'
p429
sS'FDL v1.1 or later'
p430
S'GFDL-1.1+'
p431
sS'GFDLv1.1'
p432
S'GFDL-1.1'
p433
sS'MIT License'
p434
S'MIT'
p435
sS'gSOAP-1.3b'
p436
S'gSOAP-1.3b'
p437
sS'GPLv3+'
p438
S'GPL-3.0+'
p439
sS'CC BY-SA 3.0'
p440
S'CC-BY-SA-3.0'
p441
sS'GNU General Public License version 2 (GPL v2)'
p442
S'GPL-2.0'
p443
sS'LGPLv2.1'
p444
S'LGPL-2.1'
p445
sS'LGPLv2.0'
p446
S'LGPL-2.0'
p447
sS'APSL-1.2'
p448
S'APSL-1.2'
p449
sS'APSL-1.0'
p450
S'APSL-1.0'
p451
sS'APSL-1.1'
p452
S'APSL-1.1'
p453
sS'Apache Software License'
p454
S'Apache-2.0'
p455
sS'BSD 3-clause (or similar)'
p456
S'BSD-3-Clause'
p457
sS'OFL'
p458
S'OFL-1.1'
p459
sS'LGPLv2+ with GCC exception'
p460
S'SUSE-LGPL-2.1+-with-GCC-exception'
p461
sS'libGeoIPUpdate is GPLv2 or later'
p462
S'GPL-2.0+'
p463
sS'Public Domain'
p464
S'SUSE-Public-Domain'
p465
sS'SUSE-XFree86-1.0'
p466
S'X11'
p467
sS'BSD 2 clause'
p468
S'BSD-2-Clause'
p469
sS'GPLv3+ with exceptions'
p470
S'SUSE-GPL-3.0+-with-autoconf-exception'
p471
sS'BSD4c'
p472
S'BSD-4-Clause'
p473
sS'See e.g. dh-make from debian (debian/copyright)'
p474
S'SUSE-GPL-3.0-with-template-exception'
p475
sS'OCLC-2.0'
p476
S'OCLC-2.0'
p477
sS'LGPL-2.0.1 or later'
p478
S'LGPL-2.1+'
p479
sS'LGPLv3'
p480
S'LGPL-3.0'
p481
sS'LGPLv2'
p482
S'LGPL-2.0'
p483
sS'Public Domain. See http://www.sentex.ca/~mw'
p484
S'SUSE-Public-Domain'
p485
sS'MIT/X License'
p486
S'X11'
p487
sS'CC-BY-3.0'
p488
S'CC-BY-3.0'
p489
sS'License of the mirror package is quite liberal but prohibits distribution of modified versions. Instead, you should distribute modifications as patches. This is permitted by Section 4 of the Open Source Definition'
p490
S'SUSE-mirror'
p491
sS'BSD (3-Clause)'
p492
S'BSD-3-Clause'
p493
sS'BSD3c (or similar)'
p494
S'BSD-3-Clause'
p495
sS'Common Public License v1.0'
p496
S'CPL-1.0'
p497
sS'CC-BY-1.0'
p498
S'CC-BY-1.0'
p499
sS'CC-BY-NC-3.0'
p500
S'CC-BY-NC-3.0'
p501
sS'EPL-1'
p502
S'EPL-1.0'
p503
sS'RPSL-1.0'
p504
S'RPSL-1.0'
p505
sS'FDL-1.2+'
p506
S'GFDL-1.2+'
p507
sS'GNU GPL v2'
p508
S'GPL-2.0'
p509
sS'IBM Public License'
p510
S'IPL-1.0'
p511
sS'SUSE-LGPL-2.0-with-linking-exception'
p512
S'SUSE-LGPL-2.0-with-linking-exception'
p513
sS'NPOSL-3.0'
p514
S'NPOSL-3.0'
p515
sS'Python ..'
p516
S'Python-2.0'
p517
sS'LGPL v2.0 only'
p518
S'LGPL-2.0'
p519
sS'PSF'
p520
S'Python-2.0'
p521
sS'MIT'
p522
S'MIT'
p523
sS'Fltk'
p524
S'SUSE-FLTK'
p525
sS'Eclipse Public License 1.0'
p526
S'EPL-1.0'
p527
sS'Zope Public License'
p528
S'ZPL-2.0'
p529
sS'AGPLv3'
p530
S'AGPL-3.0'
p531
sS'Multics'
p532
S'Multics'
p533
sS'LGPL v2+'
p534
S'LGPL-2.1+'
p535
sS'OSL-1.0'
p536
S'OSL-1.0'
p537
sS'BSD3c(or similar)'
p538
S'BSD-3-Clause'
p539
sS'BSD3c'
p540
S'BSD-3-Clause'
p541
sS'Firmware license, redistributable unmodified'
p542
S'SUSE-Firmware'
p543
sS'RPL-1.5'
p544
S'RPL-1.5'
p545
sS'Artistic-1.0'
p546
S'Artistic-1.0'
p547
sS'Xinedt license (Fedora also uses a custom license here)'
p548
S'SUSE-xinetd'
p549
sS'OSL-3.0'
p550
S'OSL-3.0'
p551
sS'ECL-2.0'
p552
S'ECL-2.0'
p553
sS'see IPA_Font_License_Agreement_v1.0.txt'
p554
S'IPA'
p555
sS'VSL-1.0'
p556
S'VSL-1.0'
p557
sS'CC-BY-NC-SA-1.0'
p558
S'CC-BY-NC-SA-1.0'
p559
sS'GFDL-1.3'
p560
S'GFDL-1.3'
p561
sS'GFDL-1.2'
p562
S'GFDL-1.2'
p563
sS'GFDL-1.1'
p564
S'GFDL-1.1'
p565
sS'GFDL v1.1'
p566
S'GFDL-1.1'
p567
sS'GFDL v1.2'
p568
S'GFDL-1.2'
p569
sS'MS-RL'
p570
S'MS-RL'
p571
sS'CC by-sa V2.5'
p572
S'CC-BY-SA-2.5'
p573
sS'GPLv3 with openssl linking exception (see e.g. courier-authlib 0.64.0)'
p574
S'SUSE-GPL-3.0-with-openssl-exception'
p575
sS'LPPL ..'
p576
S'LPPL-1.3c'
p577
sS'BSD 2-Clause'
p578
S'BSD-2-Clause'
p579
sS'Expat'
p580
S'MIT'
p581
sS'Frameworx-1.0'
p582
S'Frameworx-1.0'
p583
sS'Many GPL-2.0 licensed applications grant an exception that permits non-free plugins (e.g. from gstreamer) to be linked against them'
p584
S'SUSE-GPL-2.0-with-plugin-exception'
p585
sS'Eclipse-1.0'
p586
S'EPL-1.0'
p587
sS'CPAL-1.0'
p588
S'CPAL-1.0'
p589
sS'CDDL 1.0'
p590
S'CDDL-1.0'
p591
sS'BSD-2c'
p592
S'BSD-2-Clause'
p593
sS'Apache-2.0'
p594
S'Apache-2.0'
p595
sS'AFL-1.1'
p596
S'AFL-1.1'
p597
sS'AFL-1.2'
p598
S'AFL-1.2'
p599
sS'LGPL 2.1'
p600
S'LGPL-2.1'
p601
sS'APL-1.0'
p602
S'APL-1.0'
p603
sS'Python'
p604
S'Python-2.0'
p605
sS'ClArtistic'
p606
S'ClArtistic'
p607
sS'LGPL v2.1'
p608
S'LGPL-2.1'
p609
sS'Academic Free License 2.1'
p610
S'AFL-2.1'
p611
sS'LGPL v2'
p612
S'LGPL-2.0'
p613
sS'PDDL-1.0'
p614
S'PDDL-1.0'
p615
sS'MPLv1.1'
p616
S'MPL-1.1'
p617
sS'MPLv1.0'
p618
S'MPL-1.0'
p619
sS'SUSE-NetCDF'
p620
S'SUSE-NetCDF'
p621
sS'LGPL V2+'
p622
S'LGPL-2.1+'
p623
sS'SUSE-GFDL-1.3+'
p624
S'GFDL-1.3+'
p625
sS'Corresponds to https://fedoraproject.org/wiki/Licensing/IEEEDocLicense'
p626
S'SUSE-IEEE'
p627
sS'LiberationFontsLicense (Fedora calls this the Liberation license - it will be easier to get it upstream if we adopt that)'
p628
S'SUSE-Liberation'
p629
sS'eCos-2.0'
p630
S'eCos-2.0'
p631
sS'Creative Commons Sampling Plus 1.0'
p632
S'SUSE-CC-Sampling-Plus-1.0'
p633
sS'CECILL-1.0'
p634
S'CECILL-1.0'
p635
sS'CECILL-1.1'
p636
S'CECILL-1.1'
p637
sS'EPL v1.0'
p638
S'EPL-1.0'
p639
sS'http://pastebin.com/CYB22gju (the license used in csindex)'
p640
S'SUSE-MakeIndex'
p641
sS'Sleepycat'
p642
S'Sleepycat'
p643
sS'Fedora calls this MIT (it is very similar to the MIT)'
p644
S'SUSE-SGI-FreeB-2.0'
p645
sS'Mozilla Public License 1.1'
p646
S'MPL-1.1'
p647
sS'MIT License (or similar)'
p648
S'MIT'
p649
sS'GNU Lesser General Public License version 3 (LGPL v3)'
p650
S'LGPL-3.0'
p651
sS'GNU LGPL v2.1 or later'
p652
S'LGPL-2.1+'
p653
sS'CC-BY-ND-2.5'
p654
S'CC-BY-ND-2.5'
p655
sS'Tracked by Fedora as OldFSFDocLicense (see https://fedoraproject.org/wiki/Licensing:OldFSFDocLicense?rd=Licensing/OldFSFDocLicense)'
p656
S'SUSE-OldFSFDocLicense'
p657
sS'CC-BY-ND-2.0'
p658
S'CC-BY-ND-2.0'
p659
sS'EPL'
p660
S'EPL-1.0'
p661
sS'EPL 1.0 ...'
p662
S'EPL-1.0'
p663
sS'Open Market License (tracked by Fedora as OML)'
p664
S'SUSE-OML'
p665
sS'Artistic license'
p666
S'Artistic-1.0'
p667
sS'Nokia'
p668
S'Nokia'
p669
sS'BSD4c(or similar)'
p670
S'BSD-4-Clause'
p671
sS'SimPL-2.0'
p672
S'SimPL-2.0'
p673
sS'Apache 2.0'
p674
S'Apache-2.0'
p675
sS'PHP 2.02'
p676
S'SUSE-PHP-2.02'
p677
sS'GPLv2+'
p678
S'GPL-2.0+'
p679
sS'ASLv2.0'
p680
S'Apache-2.0'
p681
sS'Part of the license choice in libqt4'
p682
S'SUSE-LGPL-2.1-with-nokia-exception-1.1'
p683
sS'X11 (BSD like)'
p684
S'X11'
p685
sS'OFL-1.0'
p686
S'OFL-1.0'
p687
sS'OFL-1.1'
p688
S'OFL-1.1'
p689
sS'GPL v2.0 or later'
p690
S'GPL-2.0+'
p691
sS'GPL-2.0-with-bison-exception'
p692
S'GPL-2.0-with-bison-exception'
p693
sS'LGPL-3.0'
p694
S'LGPL-3.0'
p695
sS'LGPL-2.1 with clarifications. See http://qwt.sourceforge.net/'
p696
S'SUSE-QWT-1.0'
p697
sS'Common Public License Version 1.0 (CPL1.0)'
p698
S'CPL-1.0'
p699
sS'SUSE-MPL-1.1+'
p700
S'MPL-1.1+'
p701
sS'CUA-OPL-1.0'
p702
S'CUA-OPL-1.0'
p703
sS'ASLv..'
p704
S'Apache-2.0'
p705
sS'SUSE-AGPL-3.0+'
p706
S'AGPL-3.0+'
p707
sS'QPL-1.0'
p708
S'QPL-1.0'
p709
sS'X11/MIT'
p710
S'X11'
p711
sS'GNU Lesser General Public License version 2.1 (LGPL v2.1)'
p712
S'LGPL-2.1'
p713
sS'LGPL v2.1 or later'
p714
S'LGPL-2.1+'
p715
sS'CC-BY-NC-2.0'
p716
S'CC-BY-NC-2.0'
p717
sS'CDDL'
p718
S'CDDL-1.0'
p719
sS'W3C'
p720
S'W3C'
p721
sS'Sendmail License (http://www.sendmail.org/ftp/LICENSE)'
p722
S'SUSE-Sendmail'
p723
sS'ASL 1.1'
p724
S'Apache-1.1'
p725
sS'YPL-1.1'
p726
S'YPL-1.1'
p727
sS'CNRI (http://www.handle.net/python_licenses/python1.6_9-5-00.html)'
p728
S'SUSE-Python-1.6'
p729
sS'SIL Open Font License'
p730
S'OFL-1.1'
p731
sS'EUPL-1.0'
p732
S'EUPL-1.0'
p733
sS'EUPL-1.1'
p734
S'EUPL-1.1'
p735
sS'Zimbra-1.3'
p736
S'Zimbra-1.3'
p737
sS'EPL-1.0'
p738
S'EPL-1.0'
p739
sS'Ruby'
p740
S'Ruby'
p741
sS'GNU Free Documentation License, Version 1.2 (GFDL 1.2)'
p742
S'GFDL-1.2'
p743
sS'GPL-2.0 or later'
p744
S'GPL-2.0+'
p745
sS"Must not be copyleft. Must not contain patent clauses of any nature. Most not limit ability to copy, modifiy, distribute (through multiple tiers of distribution) and distribute modified versions. Must not impose obligations such as 'advertising clauses' or anything that could be viewed as an 'additional restriction' under GPL-2.0+ or GPL-3.0+. Must not impose obligations such as modification by patch only, or reciprocal clauses."
p746
S'SUSE-Permissive'
p747
sS'GNU GPL v3 or later'
p748
S'GPL-3.0+'
p749
sS'PHP-3.0'
p750
S'PHP-3.0'
p751
sS'CC-BY-NC-SA-3.0'
p752
S'CC-BY-NC-SA-3.0'
p753
sS'CC-BY-SA-1.0'
p754
S'CC-BY-SA-1.0'
p755
sS'Manpages licenses (linux man pages e.g.)'
p756
S'SUSE-Manpages'
p757
sS'Fair'
p758
S'Fair'
p759
sS'GPLv3+ with exceptions (Fedora)'
p760
S'SUSE-GPL-3.0+-with-font-exception'
p761
sS'ASLv2'
p762
S'Apache-2.0'
p763
sS'RSCPL'
p764
S'RSCPL'
p765
sS'GPL v2 or later  '
p766
S'GPL-2.0+'
p767
sS'GNU LGPLv2.1'
p768
S'LGPL-2.1'
p769
sS'GPL v2 only'
p770
S'GPL-2.0'
p771
sS'BSD 2 Clause'
p772
S'BSD-2-Clause'
p773
sS'GFDL 1.1'
p774
S'GFDL-1.1'
p775
sS'GFDL 1.2'
p776
S'GFDL-1.2'
p777
sS'MirOS'
p778
S'MirOS'
p779
sS'Sane contains many files with an exception to permit linking against proprietary libraries'
p780
S'SUSE-GPL-2.0+-with-sane-exception'
p781
sS'GPL v2.0'
p782
S'GPL-2.0'
p783
sS'GPL 3'
p784
S'GPL-3.0'
p785
sS'OLDAP-2.8'
p786
S'OLDAP-2.8'
p787
sS'GPL-1.0'
p788
S'GPL-1.0'
p789
sS'Artistic License ..'
p790
S'Artistic-1.0'
p791
sS'ISC License'
p792
S'ISC'
p793
sS'GPL-3.0'
p794
S'GPL-3.0'
p795
sS'LPPL-1.0'
p796
S'LPPL-1.0'
p797
sS'LPPL-1.1'
p798
S'LPPL-1.1'
p799
sS'LPPL-1.2'
p800
S'LPPL-1.2'
p801
sS'GPL-2+'
p802
S'GPL-2.0+'
p803
sS'ZPL-1.1'
p804
S'ZPL-1.1'
p805
sS'Perl License'
p806
S'Artistic-1.0 or GPL-1.0+'
p807
sS'SUSE-Oasis-Specification-Notice'
p808
S'SUSE-Oasis-Specification-Notice'
p809
sS'LGPL2.1'
p810
S'LGPL-2.1'
p811
sS'Python Software Foundation License'
p812
S'Python-2.0'
p813
sS'MIT-Licence'
p814
S'MIT'
p815
sS'CC-BY-SA-3.0'
p816
S'CC-BY-SA-3.0'
p817
sS'CC-BY-NC-ND-2.5'
p818
S'CC-BY-NC-ND-2.5'
p819
sS'CC-BY-NC-ND-2.0'
p820
S'CC-BY-NC-ND-2.0'
p821
sS'BSD-4-Clause'
p822
S'BSD-4-Clause'
p823
sS'GNU Free Documentation License, Version 1.1 (GFDL 1.1)'
p824
S'GFDL-1.1'
p825
sS'Open Font License'
p826
S'OFL-1.1'
p827
sS'Gnuplot'
p828
S'SUSE-Gnuplot'
p829
sS'GPLv1+'
p830
S'GPL-1.0+'
p831
sS'Public Domain, Freeware'
p832
S'SUSE-Public-Domain'
p833
sS'SUSE-Artistic-1.0+'
p834
S'Artistic-1.0+'
p835
sS'EPL 1.0'
p836
S'EPL-1.0'
p837
sS'Apache License, Version 2.0'
p838
S'Apache-2.0'
p839
sS'CC-BY-NC-2.5'
p840
S'CC-BY-NC-2.5'
p841
sS'Beerware License like http://en.wikipedia.org/wiki/Beerware#License'
p842
S'SUSE-Beerware'
p843
sS'LGPLv2.1+'
p844
S'LGPL-2.1+'
p845
sS'Python License ..'
p846
S'Python-2.0'
p847
sS'zlib/libpng License'
p848
S'Zlib'
p849
sS'LGPLv3+'
p850
S'LGPL-3.0+'
p851
sS'ANTLR-PD'
p852
S'ANTLR-PD'
p853
sS'Zlib'
p854
S'Zlib'
p855
sS'Python Copyright'
p856
S'Python-2.0'
p857
sS'MIT/X11'
p858
S'X11'
p859
sS'MPLv1.1 ..'
p860
S'MPL-1.1'
p861
sS'Affero GPL'
p862
S'AGPL-3.0'
p863
sS'GPL2+'
p864
S'GPL-2.0+'
p865
sS'The PHP License, version 3.01'
p866
S'PHP-3.01'
p867
sS'PostgreSQL'
p868
S'PostgreSQL'
p869
sS"License for TCL (Fedora calls this TCL too. SPDX doesn't have it)"
p870
S'SUSE-TCL'
p871
sS'CNRI-Python-GPL-Compatible'
p872
S'CNRI-Python-GPL-Compatible'
p873
sS'BSD2c'
p874
S'BSD-2-Clause'
p875
sS'NCSA'
p876
S'NCSA'
p877
sS'OSL-1.1'
p878
S'SUSE-OSL-1.1'
p879
s.