(dp0
S'BSD 2-clause'
p1
S'BSD-2-Clause'
p2
sS'Egenix Public License Agreement 1.1.0 (e.g. python-egenix-mx-base) http://www.egenix.com/products/python/mxBase/eGenix.com-Public-License-1.1.0.pdf'
p3
S'SUSE-Egenix-1.1.0'
p4
sS'BSL-1.0'
p5
S'BSL-1.0'
p6
sS'SPDX does not have this exception'
p7
S'SUSE-GPL-2.0-with-openssl-exception'
p8
sS'AGPL-3.0'
p9
S'AGPL-3.0'
p10
sS'Libpng'
p11
S'Libpng'
p12
sS'BSD-3'
p13
S'BSD-3-Clause'
p14
sS'GPLv2+ or Ruby'
p15
S'Ruby'
p16
sS'Inner Net License 2.00'
p17
S'SUSE-Innernet-2.00'
p18
sS'SNIA Public License (https://fedoraproject.org/wiki/Licensing/SNIA_Public_License)'
p19
S'SUSE-SNIA-1.0'
p20
sS'NASA-1.3'
p21
S'NASA-1.3'
p22
sS'BSD3'
p23
S'BSD-3-Clause'
p24
sS'GNU General Public License version 2 or later'
p25
S'GPL-2.0+'
p26
sS'APSL-2.0'
p27
S'APSL-2.0'
p28
sS'GPL v2+'
p29
S'GPL-2.0+'
p30
sS'Artistic'
p31
S'Artistic-1.0'
p32
sS'CPL 1.0'
p33
S'CPL-1.0'
p34
sS'LPL-1.0'
p35
S'LPL-1.0'
p36
sS'CATOSL-1.1'
p37
S'CATOSL-1.1'
p38
sS'MPLv1.1+'
p39
S'MPL-1.1+'
p40
sS'Artistic 2.0'
p41
S'Artistic-2.0'
p42
sS'ASL2'
p43
S'Apache-2.0'
p44
sS'http://pastebin.com/PkSpfTbr (part of spectcl)'
p45
S'SUSE-Xenonsoft-1.00'
p46
sS'SAX-PD'
p47
S'SAX-PD'
p48
sS'ASLv2.0+'
p49
S'Apache-2.0+'
p50
sS'Artistic-2.0'
p51
S'Artistic-2.0'
p52
sS'Apache 1.1 (Indiana University)'
p53
S'Apache-1.1'
p54
sS'Apache Software License ..'
p55
S'Apache-2.0'
p56
sS'CC-BY-NC-SA-2.0'
p57
S'CC-BY-NC-SA-2.0'
p58
sS'CC-BY-NC-SA-2.5'
p59
S'CC-BY-NC-SA-2.5'
p60
sS'LGPL-3.0+'
p61
S'LGPL-3.0+'
p62
sS'ECL-1.0'
p63
S'ECL-1.0'
p64
sS'GLPv2'
p65
S'GPL-2.0'
p66
sS'Artistic License'
p67
S'Artistic-1.0'
p68
sS'Eclipse Public License'
p69
S'EPL-1.0'
p70
sS'SUSE-Apache-2.0+'
p71
S'Apache-2.0+'
p72
sS'CPL-1.0'
p73
S'CPL-1.0'
p74
sS'JPEG License'
p75
S'SUSE-IJG'
p76
sS'MIT license'
p77
S'MIT'
p78
sS'GPL-3.0-with-autoconf-exception'
p79
S'GPL-3.0-with-autoconf-exception'
p80
sS'Freeware'
p81
S'SUSE-Freeware'
p82
sS'GFDLv1.2+'
p83
S'GFDL-1.2+'
p84
sS'CC-BY-2.0'
p85
S'CC-BY-2.0'
p86
sS'Zlib License'
p87
S'Zlib'
p88
sS'CC-BY-2.5'
p89
S'CC-BY-2.5'
p90
sS'http://pastebin.com/cFxX3zCb (probably deprecated but found in docbook-dsssl-stylesheets)'
p91
S'SUSE-XSL-Lint'
p92
sS'GPL-2.0-with-font-exception'
p93
S'GPL-2.0-with-font-exception'
p94
sS'BSD-Mark-Modifications'
p95
S'SUSE-BSD-Mark-Modifications'
p96
sS'MIT licence'
p97
S'MIT'
p98
sS'GPL-2.0-with-autoconf-exception'
p99
S'GPL-2.0-with-autoconf-exception'
p100
sS'GPL-2.0+ or Ruby'
p101
S'Ruby'
p102
sS'EFL-2.0'
p103
S'EFL-2.0'
p104
sS'AFL-2.1'
p105
S'AFL-2.1'
p106
sS'AFL-2.0'
p107
S'AFL-2.0'
p108
sS'Common Public License 0.5'
p109
S'SUSE-CPL-0.5'
p110
sS'LGPL-2.0+'
p111
S'LGPL-2.0+'
p112
sS'Copyright (C) 1999-2007 Norman Walsh'
p113
S'SUSE-Docbook-XSL'
p114
sS'Entessa'
p115
S'Entessa'
p116
sS'PHP-3.0.1'
p117
S'PHP-3.01'
p118
sS'BSD-3-Clause with addition which clarifies the software is not licensed for use in design, build or operation of nuclear facility'
p119
S'SUSE-BSD-3-Clause-with-non-nuclear-addition'
p120
sS'Erlang Public License'
p121
S'ErlPL-1.1'
p122
sS'MOZILLA PUBLIC LICENSE (MPL/NPL)'
p123
S'MPL-1.1'
p124
sS'GNU GPL version 3'
p125
S'GPL-3.0'
p126
sS'NTP'
p127
S'NTP'
p128
sS'Naumen'
p129
S'Naumen'
p130
sS'GPL-3+'
p131
S'GPL-3.0+'
p132
sS'SNIA 1.1'
p133
S'SUSE-SNIA-1.1'
p134
sS'WXwindows'
p135
S'WXwindows'
p136
sS'SPL-1.0'
p137
S'SPL-1.0'
p138
sS'GPLv2'
p139
S'GPL-2.0'
p140
sS'GPLv3'
p141
S'GPL-3.0'
p142
sS'Apache Software License, Version 2.0'
p143
S'Apache-2.0'
p144
sS'GPL-3.0+'
p145
S'GPL-3.0+'
p146
sS'LGPL v2.0 or later'
p147
S'LGPL-2.0+'
p148
sS'TeX-License ..'
p149
S'LPPL-1.3c'
p150
sS'QPL ..'
p151
S'QPL-1.0'
p152
sS'NonFree licenses'
p153
S'SUSE-NonFree'
p154
sS'RHeCos-1.1'
p155
S'RHeCos-1.1'
p156
sS'Apache-1.0'
p157
S'Apache-1.0'
p158
sS'OpenSSL'
p159
S'OpenSSL'
p160
sS'OSL-2.0'
p161
S'OSL-2.0'
p162
sS'OSL-2.1'
p163
S'OSL-2.1'
p164
sS'LGPL v3 or later'
p165
S'LGPL-3.0+'
p166
sS'LGPL-2.0'
p167
S'LGPL-2.0'
p168
sS'LGPL-2.1'
p169
S'LGPL-2.1'
p170
sS'BSD-2-Clause'
p171
S'BSD-2-Clause'
p172
sS'MS-PL'
p173
S'MS-PL'
p174
sS'X11 MIT'
p175
S'X11'
p176
sS'GNU Lesser General Public License (LGPL), Version 3'
p177
S'LGPL-3.0'
p178
sS'Apache License Version 2.0'
p179
S'Apache-2.0'
p180
sS'GPLv2 or later'
p181
S'GPL-2.0+'
p182
sS'ErlPL-1.1'
p183
S'ErlPL-1.1'
p184
sS'GPL-2.0 with linking exception for OSI licenses (see elfutils e.g.)'
p185
S'SUSE-GPL-2.0-with-OSI-exception'
p186
sS'X11'
p187
S'X11'
p188
sS'GPL v3 only'
p189
S'GPL-3.0'
p190
sS'LGPLv2.0+'
p191
S'LGPL-2.0+'
p192
sS'FDL-1.3+'
p193
S'GFDL-1.3+'
p194
sS'SUSE-Vim'
p195
S'SUSE-Vim'
p196
sS'EFL-1.0'
p197
S'EFL-1.0'
p198
sS'This license can _only_ be used for content (i.e. no code, no documentation). Provided there are no restrictions on free (re)distribution of the content, use this license. SUSE-Firmware is a subset of this category.'
p199
S'SUSE-Redistributable-Content'
p200
sS'Inner Net License 2'
p201
S'SUSE-Innernet-2.0'
p202
sS'XFree86-1.1'
p203
S'XFree86-1.1'
p204
sS'SUSE-GFDL-1.1+'
p205
S'GFDL-1.1+'
p206
sS'GNU General Public License version 2 or later (GPL v2 or later)'
p207
S'GPL-2.0+'
p208
sS'CECILL-C'
p209
S'CECILL-C'
p210
sS'CECILL-B'
p211
S'CECILL-B'
p212
sS'Distributed Management Task Force ( see https://fedoraproject.org/wiki/Licensing/DMTF )'
p213
S'SUSE-DMTF'
p214
sS'Python-2.0'
p215
S'Python-2.0'
p216
sS'Apache-1.1'
p217
S'Apache-1.1'
p218
sS'CC0-1.0'
p219
S'CC0-1.0'
p220
sS'MPL-1.0'
p221
S'MPL-1.0'
p222
sS'AFL-3.0'
p223
S'AFL-3.0'
p224
sS'LPL-1.02'
p225
S'LPL-1.02'
p226
sS'BSD 3-Clause'
p227
S'BSD-3-Clause'
p228
sS'LGPLv2+'
p229
S'LGPL-2.1+'
p230
sS'Similar to SUSE-Permissive but copyright holder has specified that modification is only allowed by patch'
p231
S'SUSE-Permissive-Modify-By-Patch'
p232
sS'QPL'
p233
S'QPL-1.0'
p234
sS'W3C Software License'
p235
S'W3C'
p236
sS'AFL 2.1'
p237
S'AFL-2.1'
p238
sS'FDLv1.2+'
p239
S'GFDL-1.2+'
p240
sS'Watcom-1.0'
p241
S'Watcom-1.0'
p242
sS'ASL 2.0'
p243
S'Apache-2.0'
p244
sS'CC-BY-NC-1.0'
p245
S'CC-BY-NC-1.0'
p246
sS'LGPL v2.1+'
p247
S'LGPL-2.1+'
p248
sS'CECILL-2.0'
p249
S'CECILL-2.0'
p250
sS'openldap 2.8'
p251
S'OLDAP-2.8'
p252
sS'GPLv2+ with openssl linking exception'
p253
S'SUSE-GPL-2.0+-with-openssl-exception'
p254
sS'IPA'
p255
S'IPA'
p256
sS'CNRI-Python'
p257
S'CNRI-Python'
p258
sS'See for example, the "FHS" license here: https://launchpad.net/ubuntu/precise/+source/debian-policy/+copyright'
p259
S'SUSE-FHS'
p260
sS'GNU General Public License version 2 or later (GPLv2 or later)'
p261
S'GPL-2.0+'
p262
sS'GPL v3 or later'
p263
S'GPL-3.0+'
p264
sS'BSD-3-Clause'
p265
S'BSD-3-Clause'
p266
sS'IPL-1.0'
p267
S'IPL-1.0'
p268
sS'Freeware license'
p269
S'SUSE-Freeware'
p270
sS'CC-BY-ND-1.0'
p271
S'CC-BY-ND-1.0'
p272
sS'Artistic 1.0'
p273
S'Artistic-1.0'
p274
sS'IBM PL'
p275
S'IPL-1.0'
p276
sS'GPL v2 or later'
p277
S'GPL-2.0+'
p278
sS'ODbL-1.0'
p279
S'ODbL-1.0'
p280
sS'Apache v2.0'
p281
S'Apache-2.0'
p282
sS'Freetype'
p283
S'SUSE-Freetype'
p284
sS'IBM Public License ..'
p285
S'IPL-1.0'
p286
sS'GPL-2.0'
p287
S'GPL-2.0'
p288
sS'ZPL'
p289
S'ZPL-2.0'
p290
sS'CPL (Common Public License) v1'
p291
S'CPL-1.0'
p292
sS'SUSE-GPL-2.0-with-FLOSS-exception'
p293
S'SUSE-GPL-2.0-with-FLOSS-exception'
p294
sS'OGTSL'
p295
S'OGTSL'
p296
sS'Similar to LGPL-2.1 but without sections 3 and 13'
p297
S'SUSE-Gitslave'
p298
sS'SIL Open Font License 1.1'
p299
S'OFL-1.1'
p300
sNS'SUSE-Xano'
p301
sS'Common Public License - v 1.0'
p302
S'CPL-1.0'
p303
sS'MPL 1.1 or later'
p304
S'MPL-1.1+'
p305
sS'CC-BY-SA-2.0'
p306
S'CC-BY-SA-2.0'
p307
sS'GPL-3.0 with exceptions for certain FLOSS licenses'
p308
S'SUSE-GPL-3.0-with-FLOSS-exception'
p309
sS'XFree86 with exception to clarify that a document embedding such fonts does not need to be licensed under the XFree86 license'
p310
S'SUSE-XFree86-with-font-exception'
p311
sS'CC-BY-SA-2.5'
p312
S'CC-BY-SA-2.5'
p313
sS'MgOpen Fonts license (similar to Bitstream Vera but with additional language)'
p314
S'SUSE-MgOpen'
p315
sS'Motosoto'
p316
S'Motosoto'
p317
sS'ImageMagick'
p318
S'SUSE-ImageMagick'
p319
sS'CPL 1.0 ...'
p320
S'CPL-1.0'
p321
sS'GPL v3'
p322
S'GPL-3.0'
p323
sS'GPL v2'
p324
S'GPL-2.0'
p325
sS'BSD-3-clause (or similar)'
p326
S'BSD-3-Clause'
p327
sS'LPPL-1.3c'
p328
S'LPPL-1.3c'
p329
sS'ISC'
p330
S'ISC'
p331
sS'CDDL-1.0'
p332
S'CDDL-1.0'
p333
sS'Public domain'
p334
S'SUSE-Public-Domain'
p335
sS'PHP License'
p336
S'PHP-3.01'
p337
sS'JSON License (http://www.json.org/license.html) - also the license of jslint'
p338
S'SUSE-JSON'
p339
sS'GNU Free Documentation License, Version 1.3 (GFDL 1.3)'
p340
S'GFDL-1.3'
p341
sS'Xnet'
p342
S'Xnet'
p343
sS'MIT/X Consortium License'
p344
S'X11'
p345
sS'Common Public License Version 1.0'
p346
S'CPL-1.0'
p347
sS'HPND'
p348
S'HPND'
p349
sS'GNU General Public License version 3 (GPLv3)'
p350
S'GPL-3.0'
p351
sS'ZPL-2.0'
p352
S'ZPL-2.0'
p353
sS'ZPL-2.1'
p354
S'ZPL-2.1'
p355
sS'qtcreator November 2012'
p356
S'SUSE-LGPL-2.1-with-digia-exception-1.1'
p357
sS'GNU General Public License (GPL) v2'
p358
S'GPL-2.0'
p359
sS'Common Public License v1.0 (CPL)'
p360
S'CPL-1.0'
p361
sS'Apache License'
p362
S'Apache-2.0'
p363
sS'LGPL v2.1 only'
p364
S'LGPL-2.1'
p365
sS'Qhull'
p366
S'SUSE-Qhull'
p367
sS'LGPL-2.1+'
p368
S'LGPL-2.1+'
p369
sS'Expat License'
p370
S'MIT'
p371
sS'AGPLv3+'
p372
S'AGPL-3.0+'
p373
sS'SUSE-GFDL-1.2+'
p374
S'GFDL-1.2+'
p375
sS'GPL-2.0-with-classpath-exception'
p376
S'GPL-2.0-with-classpath-exception'
p377
sS'Ms-Pl'
p378
S'MS-PL'
p379
sS'GPL-3.0-with-GCC-exception'
p380
S'GPL-3.0-with-GCC-exception'
p381
sS'AAL'
p382
S'AAL'
p383
sS'New BSD License'
p384
S'BSD-3-Clause'
p385
sS'GPL+'
p386
S'GPL-1.0+'
p387
sS'GPLv3+ with openssl linking exception'
p388
S'SUSE-GPL-3.0+-with-openssl-exception'
p389
sS'GPL 2.0'
p390
S'GPL-2.0'
p391
sS'zlib'
p392
S'Zlib'
p393
sS'GPL3'
p394
S'GPL-3.0'
p395
sS'GPL2'
p396
S'GPL-2.0'
p397
sS'ZPL 2.1'
p398
S'ZPL-2.1'
p399
sS'The Apache Software License'
p400
S'Apache-2.0'
p401
sS'CC BY-SA V3.0'
p402
S'CC-BY-SA-3.0'
p403
sS'NGPL'
p404
S'NGPL'
p405
sS'SugarCRM-1.1.3'
p406
S'SugarCRM-1.1.3'
p407
sS'CECILL-1.1English'
p408
S'CECILL-1.1English'
p409
sS'LGPL v2 or later'
p410
S'LGPL-2.0+'
p411
sS'EUDatagrid'
p412
S'EUDatagrid'
p413
sS'GPL-3'
p414
S'GPL-3.0'
p415
sS'GPL-2'
p416
S'GPL-2.0'
p417
sS'GPL-2.0-with-GCC-exception'
p418
S'GPL-2.0-with-GCC-exception'
p419
sS'CC-BY-NC-ND-1.0'
p420
S'CC-BY-NC-ND-1.0'
p421
sS'CC-BY-ND-3.0'
p422
S'CC-BY-ND-3.0'
p423
sS'APL-1.0 (spdx.org/licenses)'
p424
S'APL-1.0'
p425
sS'Apache License 2.0'
p426
S'Apache-2.0'
p427
sS'CC-BY-NC-ND-3.0'
p428
S'CC-BY-NC-ND-3.0'
p429
sS'GFDLv1.2'
p430
S'GFDL-1.2'
p431
sS'FDL v1.1 or later'
p432
S'GFDL-1.1+'
p433
sS'GFDLv1.1'
p434
S'GFDL-1.1'
p435
sS'MIT License'
p436
S'MIT'
p437
sS'gSOAP-1.3b'
p438
S'gSOAP-1.3b'
p439
sS'GPLv3+'
p440
S'GPL-3.0+'
p441
sS'CC BY-SA 3.0'
p442
S'CC-BY-SA-3.0'
p443
sS'GNU General Public License version 2 (GPL v2)'
p444
S'GPL-2.0'
p445
sS'LGPLv2.1'
p446
S'LGPL-2.1'
p447
sS'LGPLv2.0'
p448
S'LGPL-2.0'
p449
sS'APSL-1.2'
p450
S'APSL-1.2'
p451
sS'APSL-1.0'
p452
S'APSL-1.0'
p453
sS'APSL-1.1'
p454
S'APSL-1.1'
p455
sS'Apache Software License'
p456
S'Apache-2.0'
p457
sS'BSD 3-clause (or similar)'
p458
S'BSD-3-Clause'
p459
sS'OFL'
p460
S'OFL-1.1'
p461
sS'LGPLv2+ with GCC exception'
p462
S'SUSE-LGPL-2.1+-with-GCC-exception'
p463
sS'libGeoIPUpdate is GPLv2 or later'
p464
S'GPL-2.0+'
p465
sS'Public Domain'
p466
S'SUSE-Public-Domain'
p467
sS'SUSE-XFree86-1.0'
p468
S'X11'
p469
sS'BSD 2 clause'
p470
S'BSD-2-Clause'
p471
sS'GPLv3+ with exceptions'
p472
S'SUSE-GPL-3.0+-with-autoconf-exception'
p473
sS'BSD4c'
p474
S'BSD-4-Clause'
p475
sS'See e.g. dh-make from debian (debian/copyright)'
p476
S'SUSE-GPL-3.0-with-template-exception'
p477
sS'OCLC-2.0'
p478
S'OCLC-2.0'
p479
sS'LGPL-2.0.1 or later'
p480
S'LGPL-2.1+'
p481
sS'LGPLv3'
p482
S'LGPL-3.0'
p483
sS'LGPLv2'
p484
S'LGPL-2.0'
p485
sS'Public Domain. See http://www.sentex.ca/~mw'
p486
S'SUSE-Public-Domain'
p487
sS'MIT/X License'
p488
S'X11'
p489
sS'CC-BY-3.0'
p490
S'CC-BY-3.0'
p491
sS'License of the mirror package is quite liberal but prohibits distribution of modified versions. Instead, you should distribute modifications as patches. This is permitted by Section 4 of the Open Source Definition'
p492
S'SUSE-mirror'
p493
sS'BSD (3-Clause)'
p494
S'BSD-3-Clause'
p495
sS'BSD3c (or similar)'
p496
S'BSD-3-Clause'
p497
sS'Common Public License v1.0'
p498
S'CPL-1.0'
p499
sS'CC-BY-1.0'
p500
S'CC-BY-1.0'
p501
sS'CC-BY-NC-3.0'
p502
S'CC-BY-NC-3.0'
p503
sS'EPL-1'
p504
S'EPL-1.0'
p505
sS'RPSL-1.0'
p506
S'RPSL-1.0'
p507
sS'FDL-1.2+'
p508
S'GFDL-1.2+'
p509
sS'GNU GPL v2'
p510
S'GPL-2.0'
p511
sS'IBM Public License'
p512
S'IPL-1.0'
p513
sS'SUSE-LGPL-2.0-with-linking-exception'
p514
S'SUSE-LGPL-2.0-with-linking-exception'
p515
sS'NPOSL-3.0'
p516
S'NPOSL-3.0'
p517
sS'Python ..'
p518
S'Python-2.0'
p519
sS'LGPL v2.0 only'
p520
S'LGPL-2.0'
p521
sS'PSF'
p522
S'Python-2.0'
p523
sS'Public Domain License'
p524
S'SUSE-Public-Domain'
p525
sS'MIT'
p526
S'MIT'
p527
sS'Fltk'
p528
S'SUSE-FLTK'
p529
sS'Eclipse Public License 1.0'
p530
S'EPL-1.0'
p531
sS'Zope Public License'
p532
S'ZPL-2.0'
p533
sS'AGPLv3'
p534
S'AGPL-3.0'
p535
sS'Multics'
p536
S'Multics'
p537
sS'LGPL v2+'
p538
S'LGPL-2.1+'
p539
sS'OSL-1.0'
p540
S'OSL-1.0'
p541
sS'BSD3c(or similar)'
p542
S'BSD-3-Clause'
p543
sS'BSD3c'
p544
S'BSD-3-Clause'
p545
sS'Firmware license, redistributable unmodified'
p546
S'SUSE-Firmware'
p547
sS'RPL-1.5'
p548
S'RPL-1.5'
p549
sS'Artistic-1.0'
p550
S'Artistic-1.0'
p551
sS'Xinedt license (Fedora also uses a custom license here)'
p552
S'SUSE-xinetd'
p553
sS'OSL-3.0'
p554
S'OSL-3.0'
p555
sS'ECL-2.0'
p556
S'ECL-2.0'
p557
sS'see IPA_Font_License_Agreement_v1.0.txt'
p558
S'IPA'
p559
sS'VSL-1.0'
p560
S'VSL-1.0'
p561
sS'CC-BY-NC-SA-1.0'
p562
S'CC-BY-NC-SA-1.0'
p563
sS'GFDL-1.3'
p564
S'GFDL-1.3'
p565
sS'GFDL-1.2'
p566
S'GFDL-1.2'
p567
sS'GFDL-1.1'
p568
S'GFDL-1.1'
p569
sS'GFDL v1.1'
p570
S'GFDL-1.1'
p571
sS'GFDL v1.2'
p572
S'GFDL-1.2'
p573
sS'MS-RL'
p574
S'MS-RL'
p575
sS'CC by-sa V2.5'
p576
S'CC-BY-SA-2.5'
p577
sS'GPLv3 with openssl linking exception (see e.g. courier-authlib 0.64.0)'
p578
S'SUSE-GPL-3.0-with-openssl-exception'
p579
sS'LPPL ..'
p580
S'LPPL-1.3c'
p581
sS'BSD 2-Clause'
p582
S'BSD-2-Clause'
p583
sS'Expat'
p584
S'MIT'
p585
sS'Frameworx-1.0'
p586
S'Frameworx-1.0'
p587
sS'Many GPL-2.0 licensed applications grant an exception that permits non-free plugins (e.g. from gstreamer) to be linked against them'
p588
S'SUSE-GPL-2.0-with-plugin-exception'
p589
sS'Eclipse-1.0'
p590
S'EPL-1.0'
p591
sS'CPAL-1.0'
p592
S'CPAL-1.0'
p593
sS'CDDL 1.0'
p594
S'CDDL-1.0'
p595
sS'BSD-2c'
p596
S'BSD-2-Clause'
p597
sS'Apache-2.0'
p598
S'Apache-2.0'
p599
sS'AFL-1.1'
p600
S'AFL-1.1'
p601
sS'AFL-1.2'
p602
S'AFL-1.2'
p603
sS'LGPL 2.1'
p604
S'LGPL-2.1'
p605
sS'APL-1.0'
p606
S'APL-1.0'
p607
sS'Python'
p608
S'Python-2.0'
p609
sS'ClArtistic'
p610
S'ClArtistic'
p611
sS'LGPL v2.1'
p612
S'LGPL-2.1'
p613
sS'Academic Free License 2.1'
p614
S'AFL-2.1'
p615
sS'LGPL v2'
p616
S'LGPL-2.0'
p617
sS'PDDL-1.0'
p618
S'PDDL-1.0'
p619
sS'MPLv1.1'
p620
S'MPL-1.1'
p621
sS'MPLv1.0'
p622
S'MPL-1.0'
p623
sS'SUSE-NetCDF'
p624
S'SUSE-NetCDF'
p625
sS'LGPL V2+'
p626
S'LGPL-2.1+'
p627
sS'SUSE-GFDL-1.3+'
p628
S'GFDL-1.3+'
p629
sS'Corresponds to https://fedoraproject.org/wiki/Licensing/IEEEDocLicense'
p630
S'SUSE-IEEE'
p631
sS'LiberationFontsLicense (Fedora calls this the Liberation license - it will be easier to get it upstream if we adopt that)'
p632
S'SUSE-Liberation'
p633
sS'eCos-2.0'
p634
S'eCos-2.0'
p635
sS'Creative Commons Sampling Plus 1.0'
p636
S'SUSE-CC-Sampling-Plus-1.0'
p637
sS'CECILL-1.0'
p638
S'CECILL-1.0'
p639
sS'CECILL-1.1'
p640
S'CECILL-1.1'
p641
sS'EPL v1.0'
p642
S'EPL-1.0'
p643
sS'http://pastebin.com/CYB22gju (the license used in csindex)'
p644
S'SUSE-MakeIndex'
p645
sS'Sleepycat'
p646
S'Sleepycat'
p647
sS'Fedora calls this MIT (it is very similar to the MIT)'
p648
S'SUSE-SGI-FreeB-2.0'
p649
sS'Mozilla Public License 1.1'
p650
S'MPL-1.1'
p651
sS'MIT License (or similar)'
p652
S'MIT'
p653
sS'GNU Lesser General Public License version 3 (LGPL v3)'
p654
S'LGPL-3.0'
p655
sS'GNU LGPL v2.1 or later'
p656
S'LGPL-2.1+'
p657
sS'CC-BY-ND-2.5'
p658
S'CC-BY-ND-2.5'
p659
sS'Tracked by Fedora as OldFSFDocLicense (see https://fedoraproject.org/wiki/Licensing:OldFSFDocLicense?rd=Licensing/OldFSFDocLicense)'
p660
S'SUSE-OldFSFDocLicense'
p661
sS'CC-BY-ND-2.0'
p662
S'CC-BY-ND-2.0'
p663
sS'EPL'
p664
S'EPL-1.0'
p665
sS'EPL 1.0 ...'
p666
S'EPL-1.0'
p667
sS'Open Market License (tracked by Fedora as OML)'
p668
S'SUSE-OML'
p669
sS'Artistic license'
p670
S'Artistic-1.0'
p671
sS'Nokia'
p672
S'Nokia'
p673
sS'BSD4c(or similar)'
p674
S'BSD-4-Clause'
p675
sS'SimPL-2.0'
p676
S'SimPL-2.0'
p677
sS'Apache 2.0'
p678
S'Apache-2.0'
p679
sS'PHP 2.02'
p680
S'SUSE-PHP-2.02'
p681
sS'GPLv2+'
p682
S'GPL-2.0+'
p683
sS'ASLv2.0'
p684
S'Apache-2.0'
p685
sS'Part of the license choice in libqt4'
p686
S'SUSE-LGPL-2.1-with-nokia-exception-1.1'
p687
sS'X11 (BSD like)'
p688
S'X11'
p689
sS'OFL-1.0'
p690
S'OFL-1.0'
p691
sS'OFL-1.1'
p692
S'OFL-1.1'
p693
sS'GPL v2.0 or later'
p694
S'GPL-2.0+'
p695
sS'GPL-2.0-with-bison-exception'
p696
S'GPL-2.0-with-bison-exception'
p697
sS'LGPL-3.0'
p698
S'LGPL-3.0'
p699
sS'LGPL-2.1 with clarifications. See http://qwt.sourceforge.net/'
p700
S'SUSE-QWT-1.0'
p701
sS'Common Public License Version 1.0 (CPL1.0)'
p702
S'CPL-1.0'
p703
sS'SUSE-MPL-1.1+'
p704
S'MPL-1.1+'
p705
sS'CUA-OPL-1.0'
p706
S'CUA-OPL-1.0'
p707
sS'ASLv..'
p708
S'Apache-2.0'
p709
sS'SUSE-AGPL-3.0+'
p710
S'AGPL-3.0+'
p711
sS'QPL-1.0'
p712
S'QPL-1.0'
p713
sS'X11/MIT'
p714
S'X11'
p715
sS'GNU Lesser General Public License version 2.1 (LGPL v2.1)'
p716
S'LGPL-2.1'
p717
sS'LGPL v2.1 or later'
p718
S'LGPL-2.1+'
p719
sS'CC-BY-NC-2.0'
p720
S'CC-BY-NC-2.0'
p721
sS'CDDL'
p722
S'CDDL-1.0'
p723
sS'W3C'
p724
S'W3C'
p725
sS'Sendmail License (http://www.sendmail.org/ftp/LICENSE)'
p726
S'SUSE-Sendmail'
p727
sS'ASL 1.1'
p728
S'Apache-1.1'
p729
sS'YPL-1.1'
p730
S'YPL-1.1'
p731
sS'CNRI (http://www.handle.net/python_licenses/python1.6_9-5-00.html)'
p732
S'SUSE-Python-1.6'
p733
sS'SIL Open Font License'
p734
S'OFL-1.1'
p735
sS'EUPL-1.0'
p736
S'EUPL-1.0'
p737
sS'EUPL-1.1'
p738
S'EUPL-1.1'
p739
sS'Zimbra-1.3'
p740
S'Zimbra-1.3'
p741
sS'EPL-1.0'
p742
S'EPL-1.0'
p743
sS'Ruby'
p744
S'Ruby'
p745
sS'GNU Free Documentation License, Version 1.2 (GFDL 1.2)'
p746
S'GFDL-1.2'
p747
sS'GPL-2.0 or later'
p748
S'GPL-2.0+'
p749
sS"Must not be copyleft. Must not contain patent clauses of any nature. Most not limit ability to copy, modifiy, distribute (through multiple tiers of distribution) and distribute modified versions. Must not impose obligations such as 'advertising clauses' or anything that could be viewed as an 'additional restriction' under GPL-2.0+ or GPL-3.0+. Must not impose obligations such as modification by patch only, or reciprocal clauses."
p750
S'SUSE-Permissive'
p751
sS'GNU GPL v3 or later'
p752
S'GPL-3.0+'
p753
sS'PHP-3.0'
p754
S'PHP-3.0'
p755
sS'CC-BY-NC-SA-3.0'
p756
S'CC-BY-NC-SA-3.0'
p757
sS'CC-BY-SA-1.0'
p758
S'CC-BY-SA-1.0'
p759
sS'Manpages licenses (linux man pages e.g.)'
p760
S'SUSE-Manpages'
p761
sS'Fair'
p762
S'Fair'
p763
sS'GPLv3+ with exceptions (Fedora)'
p764
S'SUSE-GPL-3.0+-with-font-exception'
p765
sS'ASLv2'
p766
S'Apache-2.0'
p767
sS'RSCPL'
p768
S'RSCPL'
p769
sS'GPL v2 or later  '
p770
S'GPL-2.0+'
p771
sS'GNU LGPLv2.1'
p772
S'LGPL-2.1'
p773
sS'GPL v2 only'
p774
S'GPL-2.0'
p775
sS'BSD 2 Clause'
p776
S'BSD-2-Clause'
p777
sS'GFDL 1.1'
p778
S'GFDL-1.1'
p779
sS'GFDL 1.2'
p780
S'GFDL-1.2'
p781
sS'MirOS'
p782
S'MirOS'
p783
sS'Sane contains many files with an exception to permit linking against proprietary libraries'
p784
S'SUSE-GPL-2.0+-with-sane-exception'
p785
sS'GPL v2.0'
p786
S'GPL-2.0'
p787
sS'GPL 3'
p788
S'GPL-3.0'
p789
sS'OLDAP-2.8'
p790
S'OLDAP-2.8'
p791
sS'GPL-1.0'
p792
S'GPL-1.0'
p793
sS'Artistic License ..'
p794
S'Artistic-1.0'
p795
sS'ISC License'
p796
S'ISC'
p797
sS'GPL-3.0'
p798
S'GPL-3.0'
p799
sS'LPPL-1.0'
p800
S'LPPL-1.0'
p801
sS'LPPL-1.1'
p802
S'LPPL-1.1'
p803
sS'LPPL-1.2'
p804
S'LPPL-1.2'
p805
sS'GPL-2+'
p806
S'GPL-2.0+'
p807
sS'ZPL-1.1'
p808
S'ZPL-1.1'
p809
sS'Perl License'
p810
S'Artistic-1.0 or GPL-1.0+'
p811
sS'SUSE-Oasis-Specification-Notice'
p812
S'SUSE-Oasis-Specification-Notice'
p813
sS'LGPL2.1'
p814
S'LGPL-2.1'
p815
sS'Python Software Foundation License'
p816
S'Python-2.0'
p817
sS'MIT-Licence'
p818
S'MIT'
p819
sS'CC-BY-SA-3.0'
p820
S'CC-BY-SA-3.0'
p821
sS'CC-BY-NC-ND-2.5'
p822
S'CC-BY-NC-ND-2.5'
p823
sS'CC-BY-NC-ND-2.0'
p824
S'CC-BY-NC-ND-2.0'
p825
sS'BSD-4-Clause'
p826
S'BSD-4-Clause'
p827
sS'GNU Free Documentation License, Version 1.1 (GFDL 1.1)'
p828
S'GFDL-1.1'
p829
sS'Open Font License'
p830
S'OFL-1.1'
p831
sS'Gnuplot'
p832
S'SUSE-Gnuplot'
p833
sS'GPLv1+'
p834
S'GPL-1.0+'
p835
sS'Public Domain, Freeware'
p836
S'SUSE-Public-Domain'
p837
sS'SUSE-Artistic-1.0+'
p838
S'Artistic-1.0+'
p839
sS'EPL 1.0'
p840
S'EPL-1.0'
p841
sS'Apache License, Version 2.0'
p842
S'Apache-2.0'
p843
sS'CC-BY-NC-2.5'
p844
S'CC-BY-NC-2.5'
p845
sS'Beerware License like http://en.wikipedia.org/wiki/Beerware#License'
p846
S'SUSE-Beerware'
p847
sS'LGPLv2.1+'
p848
S'LGPL-2.1+'
p849
sS'Python License ..'
p850
S'Python-2.0'
p851
sS'zlib/libpng License'
p852
S'Zlib'
p853
sS'LGPLv3+'
p854
S'LGPL-3.0+'
p855
sS'ANTLR-PD'
p856
S'ANTLR-PD'
p857
sS'Zlib'
p858
S'Zlib'
p859
sS'Python Copyright'
p860
S'Python-2.0'
p861
sS'MIT/X11'
p862
S'X11'
p863
sS'MPLv1.1 ..'
p864
S'MPL-1.1'
p865
sS'Affero GPL'
p866
S'AGPL-3.0'
p867
sS'GPL2+'
p868
S'GPL-2.0+'
p869
sS'The PHP License, version 3.01'
p870
S'PHP-3.01'
p871
sS'PostgreSQL'
p872
S'PostgreSQL'
p873
sS"License for TCL (Fedora calls this TCL too. SPDX doesn't have it)"
p874
S'SUSE-TCL'
p875
sS'CNRI-Python-GPL-Compatible'
p876
S'CNRI-Python-GPL-Compatible'
p877
sS'BSD2c'
p878
S'BSD-2-Clause'
p879
sS'NCSA'
p880
S'NCSA'
p881
sS'OSL-1.1'
p882
S'SUSE-OSL-1.1'
p883
s.