(dp0
S'BSD 2-clause'
p1
S'BSD-2-Clause'
p2
sS'Egenix Public License Agreement 1.1.0 (e.g. python-egenix-mx-base) http://www.egenix.com/products/python/mxBase/eGenix.com-Public-License-1.1.0.pdf'
p3
S'SUSE-Egenix-1.1.0'
p4
sS'BSL-1.0'
p5
S'BSL-1.0'
p6
sS'SPDX does not have this exception'
p7
S'SUSE-GPL-2.0-with-openssl-exception'
p8
sS'AGPL-3.0'
p9
S'AGPL-3.0'
p10
sS'Libpng'
p11
S'Libpng'
p12
sS'BSD-3'
p13
S'BSD-3-Clause'
p14
sS'GPLv2+ or Ruby'
p15
S'Ruby'
p16
sS'Inner Net License 2.00'
p17
S'SUSE-Innernet-2.00'
p18
sS'SNIA Public License (https://fedoraproject.org/wiki/Licensing/SNIA_Public_License)'
p19
S'SUSE-SNIA-1.0'
p20
sS'NASA-1.3'
p21
S'NASA-1.3'
p22
sS'BSD3'
p23
S'BSD-3-Clause'
p24
sS'GNU General Public License version 2 or later'
p25
S'GPL-2.0+'
p26
sS'APSL-2.0'
p27
S'APSL-2.0'
p28
sS'GPL v2+'
p29
S'GPL-2.0+'
p30
sS'Artistic'
p31
S'Artistic-1.0'
p32
sS'CPL 1.0'
p33
S'CPL-1.0'
p34
sS'LPL-1.0'
p35
S'LPL-1.0'
p36
sS'CATOSL-1.1'
p37
S'CATOSL-1.1'
p38
sNS'Unicode'
p39
sS'MPLv1.1+'
p40
S'MPL-1.1+'
p41
sS'Artistic 2.0'
p42
S'Artistic-2.0'
p43
sS'ASL2'
p44
S'Apache-2.0'
p45
sS'http://pastebin.com/PkSpfTbr (part of spectcl)'
p46
S'SUSE-Xenonsoft-1.00'
p47
sS'SAX-PD'
p48
S'SAX-PD'
p49
sS'ASLv2.0+'
p50
S'Apache-2.0+'
p51
sS'Artistic-2.0'
p52
S'Artistic-2.0'
p53
sS'Apache 1.1 (Indiana University)'
p54
S'Apache-1.1'
p55
sS'Apache Software License ..'
p56
S'Apache-2.0'
p57
sS'CC-BY-NC-SA-2.0'
p58
S'CC-BY-NC-SA-2.0'
p59
sS'CC-BY-NC-SA-2.5'
p60
S'CC-BY-NC-SA-2.5'
p61
sS'LGPL-3.0+'
p62
S'LGPL-3.0+'
p63
sS'ECL-1.0'
p64
S'ECL-1.0'
p65
sS'GLPv2'
p66
S'GPL-2.0'
p67
sS'Artistic License'
p68
S'Artistic-1.0'
p69
sS'Eclipse Public License'
p70
S'EPL-1.0'
p71
sS'SUSE-Apache-2.0+'
p72
S'Apache-2.0+'
p73
sS'CPL-1.0'
p74
S'CPL-1.0'
p75
sS'JPEG License'
p76
S'SUSE-IJG'
p77
sS'MIT license'
p78
S'MIT'
p79
sS'GPL-3.0-with-autoconf-exception'
p80
S'GPL-3.0-with-autoconf-exception'
p81
sS'Freeware'
p82
S'SUSE-Freeware'
p83
sS'GFDLv1.2+'
p84
S'GFDL-1.2+'
p85
sS'CC-BY-2.0'
p86
S'CC-BY-2.0'
p87
sS'Zlib License'
p88
S'Zlib'
p89
sS'CC-BY-2.5'
p90
S'CC-BY-2.5'
p91
sS'http://pastebin.com/cFxX3zCb (probably deprecated but found in docbook-dsssl-stylesheets)'
p92
S'SUSE-XSL-Lint'
p93
sS'GPL-2.0-with-font-exception'
p94
S'GPL-2.0-with-font-exception'
p95
sS'BSD-Mark-Modifications'
p96
S'SUSE-BSD-Mark-Modifications'
p97
sS'MIT licence'
p98
S'MIT'
p99
sS'GPL-2.0-with-autoconf-exception'
p100
S'GPL-2.0-with-autoconf-exception'
p101
sS'GPL-2.0+ or Ruby'
p102
S'Ruby'
p103
sS'EFL-2.0'
p104
S'EFL-2.0'
p105
sS'AFL-2.1'
p106
S'AFL-2.1'
p107
sS'AFL-2.0'
p108
S'AFL-2.0'
p109
sS'Common Public License 0.5'
p110
S'SUSE-CPL-0.5'
p111
sS'LGPL-2.0+'
p112
S'LGPL-2.0+'
p113
sS'Copyright (C) 1999-2007 Norman Walsh'
p114
S'SUSE-Docbook-XSL'
p115
sS'Entessa'
p116
S'Entessa'
p117
sS'PHP-3.0.1'
p118
S'PHP-3.01'
p119
sS'BSD-3-Clause with addition which clarifies the software is not licensed for use in design, build or operation of nuclear facility'
p120
S'SUSE-BSD-3-Clause-with-non-nuclear-addition'
p121
sS'Erlang Public License'
p122
S'ErlPL-1.1'
p123
sS'MOZILLA PUBLIC LICENSE (MPL/NPL)'
p124
S'MPL-1.1'
p125
sS'GNU GPL version 3'
p126
S'GPL-3.0'
p127
sS'NTP'
p128
S'NTP'
p129
sS'Naumen'
p130
S'Naumen'
p131
sS'GPL-3+'
p132
S'GPL-3.0+'
p133
sS'SNIA 1.1'
p134
S'SUSE-SNIA-1.1'
p135
sS'WXwindows'
p136
S'WXwindows'
p137
sS'SPL-1.0'
p138
S'SPL-1.0'
p139
sS'GPLv2'
p140
S'GPL-2.0'
p141
sS'GPLv3'
p142
S'GPL-3.0'
p143
sS'Apache Software License, Version 2.0'
p144
S'Apache-2.0'
p145
sS'GPL-3.0+'
p146
S'GPL-3.0+'
p147
sS'LGPL v2.0 or later'
p148
S'LGPL-2.0+'
p149
sS'TeX-License ..'
p150
S'LPPL-1.3c'
p151
sS'QPL ..'
p152
S'QPL-1.0'
p153
sS'NonFree licenses'
p154
S'SUSE-NonFree'
p155
sS'RHeCos-1.1'
p156
S'RHeCos-1.1'
p157
sS'Apache-1.0'
p158
S'Apache-1.0'
p159
sS'OpenSSL'
p160
S'OpenSSL'
p161
sS'OSL-2.0'
p162
S'OSL-2.0'
p163
sS'OSL-2.1'
p164
S'OSL-2.1'
p165
sS'LGPL v3 or later'
p166
S'LGPL-3.0+'
p167
sS'LGPL-2.0'
p168
S'LGPL-2.0'
p169
sS'LGPL-2.1'
p170
S'LGPL-2.1'
p171
sS'BSD-2-Clause'
p172
S'BSD-2-Clause'
p173
sS'MS-PL'
p174
S'MS-PL'
p175
sS'X11 MIT'
p176
S'X11'
p177
sS'GNU Lesser General Public License (LGPL), Version 3'
p178
S'LGPL-3.0'
p179
sS'Apache License Version 2.0'
p180
S'Apache-2.0'
p181
sS'GPLv2 or later'
p182
S'GPL-2.0+'
p183
sS'ErlPL-1.1'
p184
S'ErlPL-1.1'
p185
sS'GPL-2.0 with linking exception for OSI licenses (see elfutils e.g.)'
p186
S'SUSE-GPL-2.0-with-OSI-exception'
p187
sS'X11'
p188
S'X11'
p189
sS'GPL v3 only'
p190
S'GPL-3.0'
p191
sS'LGPLv2.0+'
p192
S'LGPL-2.0+'
p193
sS'FDL-1.3+'
p194
S'GFDL-1.3+'
p195
sS'SUSE-Vim'
p196
S'SUSE-Vim'
p197
sS'EFL-1.0'
p198
S'EFL-1.0'
p199
sS'This license can _only_ be used for content (i.e. no code, no documentation). Provided there are no restrictions on free (re)distribution of the content, use this license. SUSE-Firmware is a subset of this category.'
p200
S'SUSE-Redistributable-Content'
p201
sS'Inner Net License 2'
p202
S'SUSE-Innernet-2.0'
p203
sS'XFree86-1.1'
p204
S'XFree86-1.1'
p205
sS'SUSE-GFDL-1.1+'
p206
S'GFDL-1.1+'
p207
sS'GNU General Public License version 2 or later (GPL v2 or later)'
p208
S'GPL-2.0+'
p209
sS'CECILL-C'
p210
S'CECILL-C'
p211
sS'CECILL-B'
p212
S'CECILL-B'
p213
sS'Distributed Management Task Force ( see https://fedoraproject.org/wiki/Licensing/DMTF )'
p214
S'SUSE-DMTF'
p215
sS'Python-2.0'
p216
S'Python-2.0'
p217
sS'Apache-1.1'
p218
S'Apache-1.1'
p219
sS'CC0-1.0'
p220
S'CC0-1.0'
p221
sS'MPL-1.0'
p222
S'MPL-1.0'
p223
sS'AFL-3.0'
p224
S'AFL-3.0'
p225
sS'LPL-1.02'
p226
S'LPL-1.02'
p227
sS'BSD 3-Clause'
p228
S'BSD-3-Clause'
p229
sS'LGPLv2+'
p230
S'LGPL-2.1+'
p231
sS'Similar to SUSE-Permissive but copyright holder has specified that modification is only allowed by patch'
p232
S'SUSE-Permissive-Modify-By-Patch'
p233
sS'QPL'
p234
S'QPL-1.0'
p235
sS'W3C Software License'
p236
S'W3C'
p237
sS'AFL 2.1'
p238
S'AFL-2.1'
p239
sS'FDLv1.2+'
p240
S'GFDL-1.2+'
p241
sS'Watcom-1.0'
p242
S'Watcom-1.0'
p243
sS'ASL 2.0'
p244
S'Apache-2.0'
p245
sS'CC-BY-NC-1.0'
p246
S'CC-BY-NC-1.0'
p247
sS'LGPL v2.1+'
p248
S'LGPL-2.1+'
p249
sS'CECILL-2.0'
p250
S'CECILL-2.0'
p251
sS'openldap 2.8'
p252
S'OLDAP-2.8'
p253
sS'GPLv2+ with openssl linking exception'
p254
S'SUSE-GPL-2.0+-with-openssl-exception'
p255
sS'IPA'
p256
S'IPA'
p257
sS'CNRI-Python'
p258
S'CNRI-Python'
p259
sS'See for example, the "FHS" license here: https://launchpad.net/ubuntu/precise/+source/debian-policy/+copyright'
p260
S'SUSE-FHS'
p261
sS'GNU General Public License version 2 or later (GPLv2 or later)'
p262
S'GPL-2.0+'
p263
sS'GPL v3 or later'
p264
S'GPL-3.0+'
p265
sS'BSD-3-Clause'
p266
S'BSD-3-Clause'
p267
sS'IPL-1.0'
p268
S'IPL-1.0'
p269
sS'Freeware license'
p270
S'SUSE-Freeware'
p271
sS'CC-BY-ND-1.0'
p272
S'CC-BY-ND-1.0'
p273
sS'Artistic 1.0'
p274
S'Artistic-1.0'
p275
sS'IBM PL'
p276
S'IPL-1.0'
p277
sS'GPL v2 or later'
p278
S'GPL-2.0+'
p279
sS'ODbL-1.0'
p280
S'ODbL-1.0'
p281
sS'Apache v2.0'
p282
S'Apache-2.0'
p283
sS'Freetype'
p284
S'SUSE-Freetype'
p285
sS'IBM Public License ..'
p286
S'IPL-1.0'
p287
sS'GPL-2.0'
p288
S'GPL-2.0'
p289
sS'ZPL'
p290
S'ZPL-2.0'
p291
sS'CPL (Common Public License) v1'
p292
S'CPL-1.0'
p293
sS'SUSE-GPL-2.0-with-FLOSS-exception'
p294
S'SUSE-GPL-2.0-with-FLOSS-exception'
p295
sS'OGTSL'
p296
S'OGTSL'
p297
sS'Similar to LGPL-2.1 but without sections 3 and 13'
p298
S'SUSE-Gitslave'
p299
sS'SIL Open Font License 1.1'
p300
S'OFL-1.1'
p301
sS'Common Public License - v 1.0'
p302
S'CPL-1.0'
p303
sS'MPL 1.1 or later'
p304
S'MPL-1.1+'
p305
sS'CC-BY-SA-2.0'
p306
S'CC-BY-SA-2.0'
p307
sS'GPL-3.0 with exceptions for certain FLOSS licenses'
p308
S'SUSE-GPL-3.0-with-FLOSS-exception'
p309
sS'XFree86 with exception to clarify that a document embedding such fonts does not need to be licensed under the XFree86 license'
p310
S'SUSE-XFree86-with-font-exception'
p311
sS'CC-BY-SA-2.5'
p312
S'CC-BY-SA-2.5'
p313
sS'MgOpen Fonts license (similar to Bitstream Vera but with additional language)'
p314
S'SUSE-MgOpen'
p315
sS'Motosoto'
p316
S'Motosoto'
p317
sS'ImageMagick'
p318
S'SUSE-ImageMagick'
p319
sS'CPL 1.0 ...'
p320
S'CPL-1.0'
p321
sS'GPL v3'
p322
S'GPL-3.0'
p323
sS'GPL v2'
p324
S'GPL-2.0'
p325
sS'BSD-3-clause (or similar)'
p326
S'BSD-3-Clause'
p327
sS'LPPL-1.3c'
p328
S'LPPL-1.3c'
p329
sS'ISC'
p330
S'ISC'
p331
sS'CDDL-1.0'
p332
S'CDDL-1.0'
p333
sS'Public domain'
p334
S'SUSE-Public-Domain'
p335
sS'PHP License'
p336
S'PHP-3.01'
p337
sS'JSON License (http://www.json.org/license.html) - also the license of jslint'
p338
S'SUSE-JSON'
p339
sS'GNU Free Documentation License, Version 1.3 (GFDL 1.3)'
p340
S'GFDL-1.3'
p341
sS'Xnet'
p342
S'Xnet'
p343
sS'MIT/X Consortium License'
p344
S'X11'
p345
sS'Common Public License Version 1.0'
p346
S'CPL-1.0'
p347
sS'HPND'
p348
S'HPND'
p349
sS'GNU General Public License version 3 (GPLv3)'
p350
S'GPL-3.0'
p351
sS'ZPL-2.0'
p352
S'ZPL-2.0'
p353
sS'ZPL-2.1'
p354
S'ZPL-2.1'
p355
sS'qtcreator November 2012'
p356
S'SUSE-LGPL-2.1-with-digia-exception-1.1'
p357
sS'GNU General Public License (GPL) v2'
p358
S'GPL-2.0'
p359
sS'Common Public License v1.0 (CPL)'
p360
S'CPL-1.0'
p361
sS'Apache License'
p362
S'Apache-2.0'
p363
sS'LGPL v2.1 only'
p364
S'LGPL-2.1'
p365
sS'Qhull'
p366
S'SUSE-Qhull'
p367
sS'LGPL-2.1+'
p368
S'LGPL-2.1+'
p369
sS'Expat License'
p370
S'MIT'
p371
sS'AGPLv3+'
p372
S'AGPL-3.0+'
p373
sS'SUSE-GFDL-1.2+'
p374
S'GFDL-1.2+'
p375
sS'GPL-2.0-with-classpath-exception'
p376
S'GPL-2.0-with-classpath-exception'
p377
sS'Ms-Pl'
p378
S'MS-PL'
p379
sS'GPL-3.0-with-GCC-exception'
p380
S'GPL-3.0-with-GCC-exception'
p381
sS'AAL'
p382
S'AAL'
p383
sS'New BSD License'
p384
S'BSD-3-Clause'
p385
sS'GPL+'
p386
S'GPL-1.0+'
p387
sS'GPLv3+ with openssl linking exception'
p388
S'SUSE-GPL-3.0+-with-openssl-exception'
p389
sS'GPL 2.0'
p390
S'GPL-2.0'
p391
sS'zlib'
p392
S'Zlib'
p393
sS'GPL3'
p394
S'GPL-3.0'
p395
sS'GPL2'
p396
S'GPL-2.0'
p397
sS'ZPL 2.1'
p398
S'ZPL-2.1'
p399
sS'The Apache Software License'
p400
S'Apache-2.0'
p401
sS'CC BY-SA V3.0'
p402
S'CC-BY-SA-3.0'
p403
sS'NGPL'
p404
S'NGPL'
p405
sS'SugarCRM-1.1.3'
p406
S'SugarCRM-1.1.3'
p407
sS'CECILL-1.1English'
p408
S'CECILL-1.1English'
p409
sS'LGPL v2 or later'
p410
S'LGPL-2.0+'
p411
sS'EUDatagrid'
p412
S'EUDatagrid'
p413
sS'GPL-3'
p414
S'GPL-3.0'
p415
sS'GPL-2'
p416
S'GPL-2.0'
p417
sS'GPL-2.0-with-GCC-exception'
p418
S'GPL-2.0-with-GCC-exception'
p419
sS'CC-BY-NC-ND-1.0'
p420
S'CC-BY-NC-ND-1.0'
p421
sS'CC-BY-ND-3.0'
p422
S'CC-BY-ND-3.0'
p423
sS'APL-1.0 (spdx.org/licenses)'
p424
S'APL-1.0'
p425
sS'Apache License 2.0'
p426
S'Apache-2.0'
p427
sS'CC-BY-NC-ND-3.0'
p428
S'CC-BY-NC-ND-3.0'
p429
sS'GFDLv1.2'
p430
S'GFDL-1.2'
p431
sS'FDL v1.1 or later'
p432
S'GFDL-1.1+'
p433
sS'GFDLv1.1'
p434
S'GFDL-1.1'
p435
sS'MIT License'
p436
S'MIT'
p437
sS'gSOAP-1.3b'
p438
S'gSOAP-1.3b'
p439
sS'GPLv3+'
p440
S'GPL-3.0+'
p441
sS'CC BY-SA 3.0'
p442
S'CC-BY-SA-3.0'
p443
sS'GNU General Public License version 2 (GPL v2)'
p444
S'GPL-2.0'
p445
sS'LGPLv2.1'
p446
S'LGPL-2.1'
p447
sS'LGPLv2.0'
p448
S'LGPL-2.0'
p449
sS'APSL-1.2'
p450
S'APSL-1.2'
p451
sS'APSL-1.0'
p452
S'APSL-1.0'
p453
sS'APSL-1.1'
p454
S'APSL-1.1'
p455
sS'Apache Software License'
p456
S'Apache-2.0'
p457
sS'BSD 3-clause (or similar)'
p458
S'BSD-3-Clause'
p459
sS'OFL'
p460
S'OFL-1.1'
p461
sS'LGPLv2+ with GCC exception'
p462
S'SUSE-LGPL-2.1+-with-GCC-exception'
p463
sS'libGeoIPUpdate is GPLv2 or later'
p464
S'GPL-2.0+'
p465
sS'Public Domain'
p466
S'SUSE-Public-Domain'
p467
sS'SUSE-XFree86-1.0'
p468
S'X11'
p469
sS'BSD 2 clause'
p470
S'BSD-2-Clause'
p471
sS'GPLv3+ with exceptions'
p472
S'SUSE-GPL-3.0+-with-autoconf-exception'
p473
sS'BSD4c'
p474
S'BSD-4-Clause'
p475
sS'See e.g. dh-make from debian (debian/copyright)'
p476
S'SUSE-GPL-3.0-with-template-exception'
p477
sS'OCLC-2.0'
p478
S'OCLC-2.0'
p479
sS'LGPL-2.0.1 or later'
p480
S'LGPL-2.1+'
p481
sS'LGPLv3'
p482
S'LGPL-3.0'
p483
sS'LGPLv2'
p484
S'LGPL-2.0'
p485
sS'Public Domain. See http://www.sentex.ca/~mw'
p486
S'SUSE-Public-Domain'
p487
sS'MIT/X License'
p488
S'X11'
p489
sS'CC-BY-3.0'
p490
S'CC-BY-3.0'
p491
sS'License of the mirror package is quite liberal but prohibits distribution of modified versions. Instead, you should distribute modifications as patches. This is permitted by Section 4 of the Open Source Definition'
p492
S'SUSE-mirror'
p493
sS'BSD (3-Clause)'
p494
S'BSD-3-Clause'
p495
sS'BSD3c (or similar)'
p496
S'BSD-3-Clause'
p497
sS'Common Public License v1.0'
p498
S'CPL-1.0'
p499
sS'CC-BY-1.0'
p500
S'CC-BY-1.0'
p501
sS'CC-BY-NC-3.0'
p502
S'CC-BY-NC-3.0'
p503
sS'EPL-1'
p504
S'EPL-1.0'
p505
sS'MIT'
p506
S'MIT'
p507
sS'FDL-1.2+'
p508
S'GFDL-1.2+'
p509
sS'GNU GPL v2'
p510
S'GPL-2.0'
p511
sS'IBM Public License'
p512
S'IPL-1.0'
p513
sS'SUSE-LGPL-2.0-with-linking-exception'
p514
S'SUSE-LGPL-2.0-with-linking-exception'
p515
sS'NPOSL-3.0'
p516
S'NPOSL-3.0'
p517
sS'Python ..'
p518
S'Python-2.0'
p519
sS'LGPL v2.0 only'
p520
S'LGPL-2.0'
p521
sS'PSF'
p522
S'Python-2.0'
p523
sS'Public Domain License'
p524
S'SUSE-Public-Domain'
p525
sS'Fltk'
p526
S'SUSE-FLTK'
p527
sS'Eclipse Public License 1.0'
p528
S'EPL-1.0'
p529
sS'Zope Public License'
p530
S'ZPL-2.0'
p531
sS'AGPLv3'
p532
S'AGPL-3.0'
p533
sS'Multics'
p534
S'Multics'
p535
sS'LGPL v2+'
p536
S'LGPL-2.1+'
p537
sS'OSL-1.0'
p538
S'OSL-1.0'
p539
sS'BSD3c(or similar)'
p540
S'BSD-3-Clause'
p541
sS'BSD3c'
p542
S'BSD-3-Clause'
p543
sS'Firmware license, redistributable unmodified'
p544
S'SUSE-Firmware'
p545
sS'RPL-1.5'
p546
S'RPL-1.5'
p547
sS'Artistic-1.0'
p548
S'Artistic-1.0'
p549
sS'Xinedt license (Fedora also uses a custom license here)'
p550
S'SUSE-xinetd'
p551
sS'OSL-3.0'
p552
S'OSL-3.0'
p553
sS'ECL-2.0'
p554
S'ECL-2.0'
p555
sS'see IPA_Font_License_Agreement_v1.0.txt'
p556
S'IPA'
p557
sS'VSL-1.0'
p558
S'VSL-1.0'
p559
sS'CC-BY-NC-SA-1.0'
p560
S'CC-BY-NC-SA-1.0'
p561
sS'GFDL-1.3'
p562
S'GFDL-1.3'
p563
sS'GFDL-1.2'
p564
S'GFDL-1.2'
p565
sS'GFDL-1.1'
p566
S'GFDL-1.1'
p567
sS'GFDL v1.1'
p568
S'GFDL-1.1'
p569
sS'GFDL v1.2'
p570
S'GFDL-1.2'
p571
sS'MS-RL'
p572
S'MS-RL'
p573
sS'CC by-sa V2.5'
p574
S'CC-BY-SA-2.5'
p575
sS'GPLv3 with openssl linking exception (see e.g. courier-authlib 0.64.0)'
p576
S'SUSE-GPL-3.0-with-openssl-exception'
p577
sS'LPPL ..'
p578
S'LPPL-1.3c'
p579
sS'BSD 2-Clause'
p580
S'BSD-2-Clause'
p581
sS'Expat'
p582
S'MIT'
p583
sS'RPSL-1.0'
p584
S'RPSL-1.0'
p585
sS'Frameworx-1.0'
p586
S'Frameworx-1.0'
p587
sS'SUSE-GPL-3.0-with-font-exception'
p588
S'SUSE-GPL-3.0-with-font-exception'
p589
sS'Many GPL-2.0 licensed applications grant an exception that permits non-free plugins (e.g. from gstreamer) to be linked against them'
p590
S'SUSE-GPL-2.0-with-plugin-exception'
p591
sS'Eclipse-1.0'
p592
S'EPL-1.0'
p593
sS'CPAL-1.0'
p594
S'CPAL-1.0'
p595
sS'CDDL 1.0'
p596
S'CDDL-1.0'
p597
sS'BSD-2c'
p598
S'BSD-2-Clause'
p599
sS'Apache-2.0'
p600
S'Apache-2.0'
p601
sS'AFL-1.1'
p602
S'AFL-1.1'
p603
sS'AFL-1.2'
p604
S'AFL-1.2'
p605
sS'LGPL 2.1'
p606
S'LGPL-2.1'
p607
sS'APL-1.0'
p608
S'APL-1.0'
p609
sS'Python'
p610
S'Python-2.0'
p611
sS'ClArtistic'
p612
S'ClArtistic'
p613
sS'LGPL v2.1'
p614
S'LGPL-2.1'
p615
sS'Academic Free License 2.1'
p616
S'AFL-2.1'
p617
sS'LGPL v2'
p618
S'LGPL-2.0'
p619
sS'PDDL-1.0'
p620
S'PDDL-1.0'
p621
sS'MPLv1.1'
p622
S'MPL-1.1'
p623
sS'MPLv1.0'
p624
S'MPL-1.0'
p625
sS'SUSE-NetCDF'
p626
S'SUSE-NetCDF'
p627
sS'LGPL V2+'
p628
S'LGPL-2.1+'
p629
sS'SUSE-GFDL-1.3+'
p630
S'GFDL-1.3+'
p631
sS'Corresponds to https://fedoraproject.org/wiki/Licensing/IEEEDocLicense'
p632
S'SUSE-IEEE'
p633
sS'LiberationFontsLicense (Fedora calls this the Liberation license - it will be easier to get it upstream if we adopt that)'
p634
S'SUSE-Liberation'
p635
sS'e.g python-psycopg2'
p636
S'SUSE-LGPL-3.0-with-openssl-exception'
p637
sS'eCos-2.0'
p638
S'eCos-2.0'
p639
sS'Creative Commons Sampling Plus 1.0'
p640
S'SUSE-CC-Sampling-Plus-1.0'
p641
sS'CECILL-1.0'
p642
S'CECILL-1.0'
p643
sS'CECILL-1.1'
p644
S'CECILL-1.1'
p645
sS'EPL v1.0'
p646
S'EPL-1.0'
p647
sS'http://pastebin.com/CYB22gju (the license used in csindex)'
p648
S'SUSE-MakeIndex'
p649
sS'Sleepycat'
p650
S'Sleepycat'
p651
sS'Fedora calls this MIT (it is very similar to the MIT)'
p652
S'SUSE-SGI-FreeB-2.0'
p653
sS'Mozilla Public License 1.1'
p654
S'MPL-1.1'
p655
sS'Open Publication License 1.0'
p656
S'OPL-1.0'
p657
sS'MIT License (or similar)'
p658
S'MIT'
p659
sS'GNU Lesser General Public License version 3 (LGPL v3)'
p660
S'LGPL-3.0'
p661
sS'GNU LGPL v2.1 or later'
p662
S'LGPL-2.1+'
p663
sS'CC-BY-ND-2.5'
p664
S'CC-BY-ND-2.5'
p665
sS'Tracked by Fedora as OldFSFDocLicense (see https://fedoraproject.org/wiki/Licensing:OldFSFDocLicense?rd=Licensing/OldFSFDocLicense)'
p666
S'SUSE-OldFSFDocLicense'
p667
sS'CC-BY-ND-2.0'
p668
S'CC-BY-ND-2.0'
p669
sS'EPL'
p670
S'EPL-1.0'
p671
sS'EPL 1.0 ...'
p672
S'EPL-1.0'
p673
sS'Open Market License (tracked by Fedora as OML)'
p674
S'SUSE-OML'
p675
sS'Artistic license'
p676
S'Artistic-1.0'
p677
sS'Nokia'
p678
S'Nokia'
p679
sS'BSD4c(or similar)'
p680
S'BSD-4-Clause'
p681
sS'SimPL-2.0'
p682
S'SimPL-2.0'
p683
sS'Apache 2.0'
p684
S'Apache-2.0'
p685
sS'PHP 2.02'
p686
S'SUSE-PHP-2.02'
p687
sS'GPLv2+'
p688
S'GPL-2.0+'
p689
sS'ASLv2.0'
p690
S'Apache-2.0'
p691
sS'Part of the license choice in libqt4'
p692
S'SUSE-LGPL-2.1-with-nokia-exception-1.1'
p693
sS'X11 (BSD like)'
p694
S'X11'
p695
sS'OFL-1.0'
p696
S'OFL-1.0'
p697
sS'OFL-1.1'
p698
S'OFL-1.1'
p699
sS'GPL v2.0 or later'
p700
S'GPL-2.0+'
p701
sS'GPL-2.0-with-bison-exception'
p702
S'GPL-2.0-with-bison-exception'
p703
sS'LGPL-3.0'
p704
S'LGPL-3.0'
p705
sS'LGPL-2.1 with clarifications. See http://qwt.sourceforge.net/'
p706
S'SUSE-QWT-1.0'
p707
sS'Common Public License Version 1.0 (CPL1.0)'
p708
S'CPL-1.0'
p709
sS'SUSE-MPL-1.1+'
p710
S'MPL-1.1+'
p711
sS'CUA-OPL-1.0'
p712
S'CUA-OPL-1.0'
p713
sS'ASLv..'
p714
S'Apache-2.0'
p715
sS'SUSE-AGPL-3.0+'
p716
S'AGPL-3.0+'
p717
sS'QPL-1.0'
p718
S'QPL-1.0'
p719
sS'X11/MIT'
p720
S'X11'
p721
sS'GNU Lesser General Public License version 2.1 (LGPL v2.1)'
p722
S'LGPL-2.1'
p723
sS'LGPL v2.1 or later'
p724
S'LGPL-2.1+'
p725
sS'CC-BY-NC-2.0'
p726
S'CC-BY-NC-2.0'
p727
sS'CDDL'
p728
S'CDDL-1.0'
p729
sS'W3C'
p730
S'W3C'
p731
sS'Sendmail License (http://www.sendmail.org/ftp/LICENSE)'
p732
S'SUSE-Sendmail'
p733
sS'ASL 1.1'
p734
S'Apache-1.1'
p735
sS'YPL-1.1'
p736
S'YPL-1.1'
p737
sS'CNRI (http://www.handle.net/python_licenses/python1.6_9-5-00.html)'
p738
S'SUSE-Python-1.6'
p739
sS'SIL Open Font License'
p740
S'OFL-1.1'
p741
sS'EUPL-1.0'
p742
S'EUPL-1.0'
p743
sS'EUPL-1.1'
p744
S'EUPL-1.1'
p745
sS'Zimbra-1.3'
p746
S'Zimbra-1.3'
p747
sS'EPL-1.0'
p748
S'EPL-1.0'
p749
sS'Ruby'
p750
S'Ruby'
p751
sS'GNU Free Documentation License, Version 1.2 (GFDL 1.2)'
p752
S'GFDL-1.2'
p753
sS'GPL-2.0 or later'
p754
S'GPL-2.0+'
p755
sS"Must not be copyleft. Must not contain patent clauses of any nature. Most not limit ability to copy, modifiy, distribute (through multiple tiers of distribution) and distribute modified versions. Must not impose obligations such as 'advertising clauses' or anything that could be viewed as an 'additional restriction' under GPL-2.0+ or GPL-3.0+. Must not impose obligations such as modification by patch only, or reciprocal clauses."
p756
S'SUSE-Permissive'
p757
sS'GNU GPL v3 or later'
p758
S'GPL-3.0+'
p759
sS'PHP-3.0'
p760
S'PHP-3.0'
p761
sS'CC-BY-NC-SA-3.0'
p762
S'CC-BY-NC-SA-3.0'
p763
sS'CC-BY-SA-1.0'
p764
S'CC-BY-SA-1.0'
p765
sS'Manpages licenses (linux man pages e.g.)'
p766
S'SUSE-Manpages'
p767
sS'Fair'
p768
S'Fair'
p769
sS'GPLv3+ with exceptions (Fedora)'
p770
S'SUSE-GPL-3.0+-with-font-exception'
p771
sS'ASLv2'
p772
S'Apache-2.0'
p773
sS'RSCPL'
p774
S'RSCPL'
p775
sS'GPL v2 or later  '
p776
S'GPL-2.0+'
p777
sS'GNU LGPLv2.1'
p778
S'LGPL-2.1'
p779
sS'GPL v2 only'
p780
S'GPL-2.0'
p781
sS'BSD 2 Clause'
p782
S'BSD-2-Clause'
p783
sS'GFDL 1.1'
p784
S'GFDL-1.1'
p785
sS'GFDL 1.2'
p786
S'GFDL-1.2'
p787
sS'MirOS'
p788
S'MirOS'
p789
sS'Sane contains many files with an exception to permit linking against proprietary libraries'
p790
S'SUSE-GPL-2.0+-with-sane-exception'
p791
sS'GPL v2.0'
p792
S'GPL-2.0'
p793
sS'GPL 3'
p794
S'GPL-3.0'
p795
sS'OLDAP-2.8'
p796
S'OLDAP-2.8'
p797
sS'GPL-1.0'
p798
S'GPL-1.0'
p799
sS'Artistic License ..'
p800
S'Artistic-1.0'
p801
sS'ISC License'
p802
S'ISC'
p803
sS'GPL-3.0'
p804
S'GPL-3.0'
p805
sS'LPPL-1.0'
p806
S'LPPL-1.0'
p807
sS'LPPL-1.1'
p808
S'LPPL-1.1'
p809
sS'LPPL-1.2'
p810
S'LPPL-1.2'
p811
sS'GPL-2+'
p812
S'GPL-2.0+'
p813
sS'ZPL-1.1'
p814
S'ZPL-1.1'
p815
sS'Perl License'
p816
S'Artistic-1.0 or GPL-1.0+'
p817
sS'SUSE-Oasis-Specification-Notice'
p818
S'SUSE-Oasis-Specification-Notice'
p819
sS'LGPL2.1'
p820
S'LGPL-2.1'
p821
sS'Python Software Foundation License'
p822
S'Python-2.0'
p823
sS'MIT-Licence'
p824
S'MIT'
p825
sS'CC-BY-SA-3.0'
p826
S'CC-BY-SA-3.0'
p827
sS'CC-BY-NC-ND-2.5'
p828
S'CC-BY-NC-ND-2.5'
p829
sS'CC-BY-NC-ND-2.0'
p830
S'CC-BY-NC-ND-2.0'
p831
sS'BSD-4-Clause'
p832
S'BSD-4-Clause'
p833
sS'GNU Free Documentation License, Version 1.1 (GFDL 1.1)'
p834
S'GFDL-1.1'
p835
sS'Open Font License'
p836
S'OFL-1.1'
p837
sS'Gnuplot'
p838
S'SUSE-Gnuplot'
p839
sS'GPLv1+'
p840
S'GPL-1.0+'
p841
sS'Public Domain, Freeware'
p842
S'SUSE-Public-Domain'
p843
sS'SUSE-Artistic-1.0+'
p844
S'Artistic-1.0+'
p845
sS'EPL 1.0'
p846
S'EPL-1.0'
p847
sS'Apache License, Version 2.0'
p848
S'Apache-2.0'
p849
sS'CC-BY-NC-2.5'
p850
S'CC-BY-NC-2.5'
p851
sS'Beerware License like http://en.wikipedia.org/wiki/Beerware#License'
p852
S'SUSE-Beerware'
p853
sS'LGPLv2.1+'
p854
S'LGPL-2.1+'
p855
sS'Python License ..'
p856
S'Python-2.0'
p857
sS'zlib/libpng License'
p858
S'Zlib'
p859
sS'LGPLv3+'
p860
S'LGPL-3.0+'
p861
sS'ANTLR-PD'
p862
S'ANTLR-PD'
p863
sS'Zlib'
p864
S'Zlib'
p865
sS'Python Copyright'
p866
S'Python-2.0'
p867
sS'MIT/X11'
p868
S'X11'
p869
sS'MPLv1.1 ..'
p870
S'MPL-1.1'
p871
sS'Affero GPL'
p872
S'AGPL-3.0'
p873
sS'GPL2+'
p874
S'GPL-2.0+'
p875
sS'The PHP License, version 3.01'
p876
S'PHP-3.01'
p877
sS'PostgreSQL'
p878
S'PostgreSQL'
p879
sS"License for TCL (Fedora calls this TCL too. SPDX doesn't have it)"
p880
S'SUSE-TCL'
p881
sS'CNRI-Python-GPL-Compatible'
p882
S'CNRI-Python-GPL-Compatible'
p883
sS'BSD2c'
p884
S'BSD-2-Clause'
p885
sS'NCSA'
p886
S'NCSA'
p887
sS'OSL-1.1'
p888
S'SUSE-OSL-1.1'
p889
s.