(dp0
S'BSD 2-clause'
p1
S'BSD-2-Clause'
p2
sS'BSL-1.0'
p3
S'BSL-1.0'
p4
sS'AGPL-3.0'
p5
S'AGPL-3.0'
p6
sS'Libpng'
p7
S'Libpng'
p8
sS'BSD-3'
p9
S'BSD-3-Clause'
p10
sS'Inner Net License 2.00'
p11
S'SUSE-Innernet-2.00'
p12
sS'NASA-1.3'
p13
S'NASA-1.3'
p14
sS'BSD3'
p15
S'BSD-3-Clause'
p16
sS'GNU General Public License version 2 or later'
p17
S'GPL-2.0+'
p18
sS'APSL-2.0'
p19
S'APSL-2.0'
p20
sS'GPL v2+'
p21
S'GPL-2.0+'
p22
sS'Artistic'
p23
S'Artistic-1.0'
p24
sS'CPL 1.0'
p25
S'CPL-1.0'
p26
sS'CATOSL-1.1'
p27
S'CATOSL-1.1'
p28
sS'MPLv1.1+'
p29
S'SUSE-MPL-1.1+'
p30
sS'Artistic 2.0'
p31
S'Artistic-2.0'
p32
sS'ASL2'
p33
S'Apache-2.0'
p34
sS'zlib'
p35
S'Zlib'
p36
sS'ASLv2.0+'
p37
S'SUSE-Apache-2.0+'
p38
sS'Artistic-2.0'
p39
S'Artistic-2.0'
p40
sS'Apache 1.1 (Indiana University)'
p41
S'Apache-1.1'
p42
sS'Apache Software License ..'
p43
S'Apache-2.0'
p44
sS'CC-BY-NC-SA-2.0'
p45
S'CC-BY-NC-SA-2.0'
p46
sS'CC-BY-NC-SA-2.5'
p47
S'CC-BY-NC-SA-2.5'
p48
sS'LGPL-3.0+'
p49
S'LGPL-3.0+'
p50
sS'ECL-1.0'
p51
S'ECL-1.0'
p52
sS'GLPv2'
p53
S'GPL-2.0'
p54
sS'Artistic License'
p55
S'Artistic-1.0'
p56
sS'Eclipse Public License'
p57
S'EPL-1.0'
p58
sS'CPL-1.0'
p59
S'CPL-1.0'
p60
sS'JPEG License'
p61
S'SUSE-IJG'
p62
sS'MIT license'
p63
S'MIT'
p64
sS'GPL-3.0-with-autoconf-exception'
p65
S'GPL-3.0-with-autoconf-exception'
p66
sS'Freeware'
p67
S'SUSE-Freeware'
p68
sS'GFDLv1.2+'
p69
S'SUSE-GFDL-1.2+'
p70
sS'CC-BY-2.0'
p71
S'CC-BY-2.0'
p72
sS'Zlib License'
p73
S'Zlib'
p74
sS'CC-BY-2.5'
p75
S'CC-BY-2.5'
p76
sS'GPL-2.0-with-font-exception'
p77
S'GPL-2.0-with-font-exception'
p78
sS'APSL-1.2'
p79
S'APSL-1.2'
p80
sS'GPL-2.0-with-autoconf-exception'
p81
S'GPL-2.0-with-autoconf-exception'
p82
sS'EFL-2.0'
p83
S'EFL-2.0'
p84
sS'AFL-2.1'
p85
S'AFL-2.1'
p86
sS'AFL-2.0'
p87
S'AFL-2.0'
p88
sS'LGPL-2.0+'
p89
S'LGPL-2.0+'
p90
sS'Entessa'
p91
S'Entessa'
p92
sS'PHP-3.0.1'
p93
S'PHP-3.01'
p94
sS'Erlang Public License'
p95
S'ErlPL-1.1'
p96
sS'MOZILLA PUBLIC LICENSE (MPL/NPL)'
p97
S'MPL-1.1'
p98
sS'GNU GPL version 3'
p99
S'GPL-3.0'
p100
sS'NTP'
p101
S'NTP'
p102
sS'Naumen'
p103
S'Naumen'
p104
sS'GPL-3+'
p105
S'GPL-3.0+'
p106
sS'WXwindows'
p107
S'WXwindows'
p108
sS'SPL-1.0'
p109
S'SPL-1.0'
p110
sS'GPLv2'
p111
S'GPL-2.0'
p112
sS'GPLv3'
p113
S'GPL-3.0'
p114
sS'Apache Software License, Version 2.0'
p115
S'Apache-2.0'
p116
sS'LGPL v2.0 or later'
p117
S'LGPL-2.0+'
p118
sS'GPL-3.0+'
p119
S'GPL-3.0+'
p120
sS'QPL ..'
p121
S'QPL-1.0'
p122
sS'NonFree licenses'
p123
S'SUSE-NonFree'
p124
sS'RHeCos-1.1'
p125
S'RHeCos-1.1'
p126
sS'Apache-1.0'
p127
S'Apache-1.0'
p128
sS'OpenSSL'
p129
S'OpenSSL'
p130
sS'OSL-2.0'
p131
S'OSL-2.0'
p132
sS'LGPL v3 or later'
p133
S'LGPL-3.0+'
p134
sS'LGPL-2.0'
p135
S'LGPL-2.0'
p136
sS'LGPL-2.1'
p137
S'LGPL-2.1'
p138
sS'BSD-2-Clause'
p139
S'BSD-2-Clause'
p140
sS'MS-PL'
p141
S'MS-PL'
p142
sS'X11 MIT'
p143
S'MIT'
p144
sS'GNU Lesser General Public License (LGPL), Version 3'
p145
S'LGPL-3.0'
p146
sS'GPLv2 or later'
p147
S'GPL-2.0+'
p148
sS'ErlPL-1.1'
p149
S'ErlPL-1.1'
p150
sS'X11'
p151
S'MIT'
p152
sS'GPL v3 only'
p153
S'GPL-3.0'
p154
sS'LGPLv2.0+'
p155
S'LGPL-2.0+'
p156
sS'GNU LGPLv2.1'
p157
S'LGPL-2.1'
p158
sS'Python'
p159
S'Python-2.0'
p160
sS'Inner Net License 2'
p161
S'SUSE-Innernet-2.0'
p162
sS'XFree86-1.1'
p163
S'XFree86-1.1'
p164
sS'MIT License'
p165
S'MIT'
p166
sS'GNU General Public License version 2 or later (GPL v2 or later)'
p167
S'GPL-2.0+'
p168
sS'CECILL-C'
p169
S'CECILL-C'
p170
sS'CECILL-B'
p171
S'CECILL-B'
p172
sS'Distributed Management Task Force ( see https://fedoraproject.org/wiki/Licensing/DMTF )'
p173
S'SUSE-DMTF'
p174
sS'Python-2.0'
p175
S'Python-2.0'
p176
sS'Apache-1.1'
p177
S'Apache-1.1'
p178
sS'CC0-1.0'
p179
S'CC0-1.0'
p180
sS'MPL-1.0'
p181
S'MPL-1.0'
p182
sS'MPL-1.1'
p183
S'MPL-1.1'
p184
sS'AFL-3.0'
p185
S'AFL-3.0'
p186
sS'LPL-1.02'
p187
S'LPL-1.02'
p188
sS'BSD 3-Clause'
p189
S'BSD-3-Clause'
p190
sS'LGPLv2+'
p191
S'LGPL-2.1+'
p192
sS'QPL'
p193
S'QPL-1.0'
p194
sS'W3C Software License'
p195
S'W3C'
p196
sS'AFL 2.1'
p197
S'AFL-2.1'
p198
sS'FDLv1.2+'
p199
S'SUSE-GFDL-1.2+'
p200
sS'GPL-1.0+'
p201
S'GPL-1.0+'
p202
sS'Watcom-1.0'
p203
S'Watcom-1.0'
p204
sS'ASL 2.0'
p205
S'Apache-2.0'
p206
sS'CC-BY-NC-1.0'
p207
S'CC-BY-NC-1.0'
p208
sS'LGPL v2.1+'
p209
S'LGPL-2.1+'
p210
sS'CECILL-2.0'
p211
S'CECILL-2.0'
p212
sS'openldap 2.8'
p213
S'OLDAP-2.8'
p214
sS'GPLv2+ with openssl linking exception'
p215
S'SUSE-GPL-2.0+-with-openssl-exception'
p216
sS'IPA'
p217
S'IPA'
p218
sS'GNU General Public License version 2 or later (GPLv2 or later)'
p219
S'GPL-2.0+'
p220
sS'GPL v3 or later'
p221
S'GPL-3.0+'
p222
sS'BSD-3-Clause'
p223
S'BSD-3-Clause'
p224
sS'IPL-1.0'
p225
S'IPL-1.0'
p226
sS'Freeware license'
p227
S'SUSE-Freeware'
p228
sS'CC-BY-ND-1.0'
p229
S'CC-BY-ND-1.0'
p230
sS'Artistic 1.0'
p231
S'Artistic-1.0'
p232
sS'IBM PL'
p233
S'IPL-1.0'
p234
sS'GPL v2 or later'
p235
S'GPL-2.0+'
p236
sS'ODbL-1.0'
p237
S'ODbL-1.0'
p238
sS'Apache v2.0'
p239
S'Apache-2.0'
p240
sS'TeX-License ..'
p241
S'LPPL-1.3c'
p242
sS'Freetype'
p243
S'SUSE-Freetype'
p244
sS'IBM Public License ..'
p245
S'IPL-1.0'
p246
sS'GPL-2.0'
p247
S'GPL-2.0'
p248
sS'ZPL'
p249
S'ZPL-2.0'
p250
sS'CPL (Common Public License) v1'
p251
S'CPL-1.0'
p252
sS'SUSE-GPL-2.0-with-FLOSS-exception'
p253
S'SUSE-GPL-2.0-with-FLOSS-exception'
p254
sS'OGTSL'
p255
S'OGTSL'
p256
sS'SIL Open Font License 1.1'
p257
S'OFL-1.1'
p258
sS'Common Public License - v 1.0'
p259
S'CPL-1.0'
p260
sS'MPL 1.1 or later'
p261
S'SUSE-MPL-1.1+'
p262
sS'CC-BY-SA-2.0'
p263
S'CC-BY-SA-2.0'
p264
sS'CC-BY-SA-2.5'
p265
S'CC-BY-SA-2.5'
p266
sS'Motosoto'
p267
S'Motosoto'
p268
sS'ImageMagick'
p269
S'SUSE-ImageMagick'
p270
sS'CPL 1.0 ...'
p271
S'CPL-1.0'
p272
sS'GPL v3'
p273
S'GPL-3.0'
p274
sS'GPL v2'
p275
S'GPL-2.0'
p276
sS'BSD-3-clause (or similar)'
p277
S'BSD-3-Clause'
p278
sS'LPPL-1.3c'
p279
S'LPPL-1.3c'
p280
sS'ISC'
p281
S'ISC'
p282
sS'CDDL-1.0'
p283
S'CDDL-1.0'
p284
sS'Public domain'
p285
S'SUSE-Public-Domain'
p286
sS'PHP License'
p287
S'PHP-3.01'
p288
sS'GPL-2.0+'
p289
S'GPL-2.0+'
p290
sS'GNU Free Documentation License, Version 1.3 (GFDL 1.3)'
p291
S'GFDL-1.3'
p292
sS'Xnet'
p293
S'Xnet'
p294
sS'MIT/X Consortium License'
p295
S'MIT'
p296
sS'Common Public License Version 1.0'
p297
S'CPL-1.0'
p298
sS'HPND'
p299
S'HPND'
p300
sS'GNU General Public License version 3 (GPLv3)'
p301
S'GPL-3.0'
p302
sS'ZPL-2.0'
p303
S'ZPL-2.0'
p304
sS'ZPL-2.1'
p305
S'ZPL-2.1'
p306
sS'GNU General Public License (GPL) v2'
p307
S'GPL-2.0'
p308
sS'Common Public License v1.0 (CPL)'
p309
S'CPL-1.0'
p310
sS'Apache License'
p311
S'Apache-2.0'
p312
sS'LGPL v2.1 only'
p313
S'LGPL-2.1'
p314
sS'Qhull'
p315
S'SUSE-Qhull'
p316
sS'LGPL-2.1+'
p317
S'LGPL-2.1+'
p318
sS'IBM Public License'
p319
S'IPL-1.0'
p320
sS'AGPLv3+'
p321
S'SUSE-AGPL-3.0+'
p322
sS'GPL-2.0-with-classpath-exception'
p323
S'GPL-2.0-with-classpath-exception'
p324
sS'Ms-Pl'
p325
S'MS-PL'
p326
sS'GPL-3.0-with-GCC-exception'
p327
S'GPL-3.0-with-GCC-exception'
p328
sS'AAL'
p329
S'AAL'
p330
sS'New BSD License'
p331
S'BSD-3-Clause'
p332
sS'Artistic-1.0+'
p333
S'SUSE-Artistic-1.0+'
p334
sS'GPL+'
p335
S'GPL-1.0+'
p336
sS'GPLv3+ with openssl linking exception'
p337
S'SUSE-GPL-3.0+-with-openssl-exception'
p338
sS'GPL 2.0'
p339
S'GPL-2.0'
p340
sS'GPL3'
p341
S'GPL-3.0'
p342
sS'GPL2'
p343
S'GPL-2.0'
p344
sS'ZPL 2.1'
p345
S'ZPL-2.1'
p346
sS'The Apache Software License'
p347
S'Apache-2.0'
p348
sS'CC BY-SA V3.0'
p349
S'CC-BY-SA-3.0'
p350
sS'NGPL'
p351
S'NGPL'
p352
sS'SugarCRM-1.1.3'
p353
S'SugarCRM-1.1.3'
p354
sS'CECILL-1.1English'
p355
S'CECILL-1.1English'
p356
sS'LGPL v2 or later'
p357
S'LGPL-2.0+'
p358
sS'EUDatagrid'
p359
S'EUDatagrid'
p360
sS'GPL-3'
p361
S'GPL-3.0'
p362
sS'GPL-2'
p363
S'GPL-2.0'
p364
sS'GPL-2.0-with-GCC-exception'
p365
S'GPL-2.0-with-GCC-exception'
p366
sS'CC-BY-NC-ND-1.0'
p367
S'CC-BY-NC-ND-1.0'
p368
sS'CC-BY-ND-3.0'
p369
S'CC-BY-ND-3.0'
p370
sS'APL-1.0 (spdx.org/licenses)'
p371
S'APL-1.0'
p372
sS'Apache License 2.0'
p373
S'Apache-2.0'
p374
sS'CC-BY-NC-ND-3.0'
p375
S'CC-BY-NC-ND-3.0'
p376
sS'GFDLv1.2'
p377
S'GFDL-1.2'
p378
sS'FDL v1.1 or later'
p379
S'SUSE-GFDL-1.1+'
p380
sS'GFDLv1.1'
p381
S'GFDL-1.1'
p382
sS'gSOAP-1.3b'
p383
S'gSOAP-1.3b'
p384
sS'GPLv3+'
p385
S'GPL-3.0+'
p386
sS'CC BY-SA 3.0'
p387
S'CC-BY-SA-3.0'
p388
sS'GNU General Public License version 2 (GPL v2)'
p389
S'GPL-2.0'
p390
sS'LGPLv2.1'
p391
S'LGPL-2.1'
p392
sS'LGPLv2.0'
p393
S'LGPL-2.0'
p394
sS'MIT licence'
p395
S'MIT'
p396
sS'APSL-1.0'
p397
S'APSL-1.0'
p398
sS'APSL-1.1'
p399
S'APSL-1.1'
p400
sS'Apache Software License'
p401
S'Apache-2.0'
p402
sS'BSD 3-clause (or similar)'
p403
S'BSD-3-Clause'
p404
sS'OFL'
p405
S'OFL-1.1'
p406
sS'LGPLv2+ with GCC exception'
p407
S'SUSE-LGPL-2.1+-with-GCC-exception'
p408
sS'libGeoIPUpdate is GPLv2 or later'
p409
S'GPL-2.0+'
p410
sS'Public Domain'
p411
S'SUSE-Public-Domain'
p412
sS'BSD 2 clause'
p413
S'BSD-2-Clause'
p414
sS'GPLv3+ with exceptions'
p415
S'SUSE-GPL-3.0+-with-autoconf-exception'
p416
sS'BSD4c'
p417
S'BSD-4-Clause'
p418
sS'OCLC-2.0'
p419
S'OCLC-2.0'
p420
sS'LGPL-2.0.1 or later'
p421
S'LGPL-2.1+'
p422
sS'LGPLv3'
p423
S'LGPL-3.0'
p424
sS'LGPLv2'
p425
S'LGPL-2.0'
p426
sS'Public Domain. See http://www.sentex.ca/~mw'
p427
S'SUSE-Public-Domain'
p428
sS'MIT/X License'
p429
S'MIT'
p430
sS'CC-BY-3.0'
p431
S'CC-BY-3.0'
p432
sS'BSD (3-Clause)'
p433
S'BSD-3-Clause'
p434
sS'BSD3c (or similar)'
p435
S'BSD-3-Clause'
p436
sS'Common Public License v1.0'
p437
S'CPL-1.0'
p438
sS'CC-BY-1.0'
p439
S'CC-BY-1.0'
p440
sS'CC-BY-NC-3.0'
p441
S'CC-BY-NC-3.0'
p442
sS'EPL-1'
p443
S'EPL-1.0'
p444
sS'MIT'
p445
S'MIT'
p446
sS'FDL-1.2+'
p447
S'SUSE-GFDL-1.2+'
p448
sS'GNU GPL v2'
p449
S'GPL-2.0'
p450
sS'Expat License'
p451
S'MIT'
p452
sS'NPOSL-3.0'
p453
S'NPOSL-3.0'
p454
sS'Python ..'
p455
S'Python-2.0'
p456
sS'LGPL v2.0 only'
p457
S'LGPL-2.0'
p458
sS'PSF'
p459
S'Python-2.0'
p460
sS'Fltk'
p461
S'SUSE-FLTK'
p462
sS'Eclipse Public License 1.0'
p463
S'EPL-1.0'
p464
sS'Zope Public License'
p465
S'ZPL-2.0'
p466
sS'AGPLv3'
p467
S'AGPL-3.0'
p468
sS'Multics'
p469
S'Multics'
p470
sS'OSL-1.1'
p471
S'SUSE-OSL-1.1'
p472
sS'OSL-1.0'
p473
S'OSL-1.0'
p474
sS'BSD3c(or similar)'
p475
S'BSD-3-Clause'
p476
sS'BSD3c'
p477
S'BSD-3-Clause'
p478
sS'Firmware license, redistributable unmodified'
p479
S'SUSE-Firmware'
p480
sS'CC-BY-NC-SA-3.0'
p481
S'CC-BY-NC-SA-3.0'
p482
sS'Artistic-1.0'
p483
S'Artistic-1.0'
p484
sS'OSL-3.0'
p485
S'OSL-3.0'
p486
sS'ECL-2.0'
p487
S'ECL-2.0'
p488
sS'see IPA_Font_License_Agreement_v1.0.txt'
p489
S'IPA'
p490
sS'VSL-1.0'
p491
S'VSL-1.0'
p492
sS'CC-BY-NC-SA-1.0'
p493
S'CC-BY-NC-SA-1.0'
p494
sS'GFDL-1.3'
p495
S'GFDL-1.3'
p496
sS'GFDL-1.2'
p497
S'GFDL-1.2'
p498
sS'GFDL-1.1'
p499
S'GFDL-1.1'
p500
sS'GFDL v1.1'
p501
S'GFDL-1.1'
p502
sS'GFDL v1.2'
p503
S'GFDL-1.2'
p504
sS'MS-RL'
p505
S'MS-RL'
p506
sS'CC by-sa V2.5'
p507
S'CC-BY-SA-2.5'
p508
sS'LPPL ..'
p509
S'LPPL-1.3c'
p510
sS'BSD 2-Clause'
p511
S'BSD-2-Clause'
p512
sS'Expat'
p513
S'MIT'
p514
sS'RPSL-1.0'
p515
S'RPSL-1.0'
p516
sS'Frameworx-1.0'
p517
S'Frameworx-1.0'
p518
sS'Eclipse-1.0'
p519
S'EPL-1.0'
p520
sS'CPAL-1.0'
p521
S'CPAL-1.0'
p522
sS'CDDL 1.0'
p523
S'CDDL-1.0'
p524
sS'BSD-2c'
p525
S'BSD-2-Clause'
p526
sS'Apache-2.0'
p527
S'Apache-2.0'
p528
sS'AFL-1.2'
p529
S'AFL-1.2'
p530
sS'LGPL 2.1'
p531
S'LGPL-2.1'
p532
sS'APL-1.0'
p533
S'APL-1.0'
p534
sS'EFL-1.0'
p535
S'EFL-1.0'
p536
sS'ClArtistic'
p537
S'ClArtistic'
p538
sS'LGPL v2.1'
p539
S'LGPL-2.1'
p540
sS'Artistic license'
p541
S'Artistic-1.0'
p542
sS'LGPL v2'
p543
S'LGPL-2.0'
p544
sS'PDDL-1.0'
p545
S'PDDL-1.0'
p546
sS'MPLv1.1'
p547
S'MPL-1.1'
p548
sS'MPLv1.0'
p549
S'MPL-1.0'
p550
sS'LGPL V2+'
p551
S'LGPL-2.1+'
p552
sS'LiberationFontsLicense (Fedora calls this the Liberation license - it will be easier to get it upstream if we adopt that)'
p553
S'SUSE-Liberation'
p554
sS'eCos-2.0'
p555
S'eCos-2.0'
p556
sS'CECILL-1.0'
p557
S'CECILL-1.0'
p558
sS'SAX-PD'
p559
S'SAX-PD'
p560
sS'EPL v1.0'
p561
S'EPL-1.0'
p562
sS'Sleepycat'
p563
S'Sleepycat'
p564
sS'Mozilla Public License 1.1'
p565
S'MPL-1.1'
p566
sS'MIT License (or similar)'
p567
S'MIT'
p568
sS'GNU Lesser General Public License version 3 (LGPL v3)'
p569
S'LGPL-3.0'
p570
sS'X11 (BSD like)'
p571
S'MIT'
p572
sS'CC-BY-ND-2.5'
p573
S'CC-BY-ND-2.5'
p574
sS'CC-BY-ND-2.0'
p575
S'CC-BY-ND-2.0'
p576
sS'EPL'
p577
S'EPL-1.0'
p578
sS'EPL 1.0 ...'
p579
S'EPL-1.0'
p580
sS'Nokia'
p581
S'Nokia'
p582
sS'BSD4c(or similar)'
p583
S'BSD-4-Clause'
p584
sS'SimPL-2.0'
p585
S'SimPL-2.0'
p586
sS'Apache 2.0'
p587
S'Apache-2.0'
p588
sS'PHP 2.02'
p589
S'SUSE-PHP-2.02'
p590
sS'GPLv2+'
p591
S'GPL-2.0+'
p592
sS'GPL v2.0 or later'
p593
S'GPL-2.0+'
p594
sS'Part of the license choice in libqt4'
p595
S'SUSE-LGPL-2.1-with-nokia-exception-1.1'
p596
sS'GNU LGPL v2.1 or later'
p597
S'LGPL-2.1+'
p598
sS'OFL-1.1'
p599
S'OFL-1.1'
p600
sS'ASLv2.0'
p601
S'Apache-2.0'
p602
sS'GPL-2.0-with-bison-exception'
p603
S'GPL-2.0-with-bison-exception'
p604
sS'LGPL-3.0'
p605
S'LGPL-3.0'
p606
sS'Common Public License Version 1.0 (CPL1.0)'
p607
S'CPL-1.0'
p608
sS'CUA-OPL-1.0'
p609
S'CUA-OPL-1.0'
p610
sS'ASLv..'
p611
S'Apache-2.0'
p612
sS'LGPL v2+'
p613
S'LGPL-2.1+'
p614
sS'QPL-1.0'
p615
S'QPL-1.0'
p616
sS'CC-BY-NC-2.5'
p617
S'CC-BY-NC-2.5'
p618
sS'GNU Lesser General Public License version 2.1 (LGPL v2.1)'
p619
S'LGPL-2.1'
p620
sS'LGPL v2.1 or later'
p621
S'LGPL-2.1+'
p622
sS'CC-BY-NC-2.0'
p623
S'CC-BY-NC-2.0'
p624
sS'CDDL'
p625
S'CDDL-1.0'
p626
sS'W3C'
p627
S'W3C'
p628
sS'Sendmail License (http://www.sendmail.org/ftp/LICENSE)'
p629
S'SUSE-Sendmail'
p630
sS'ASL 1.1'
p631
S'Apache-1.1'
p632
sS'YPL-1.1'
p633
S'YPL-1.1'
p634
sS'CNRI (http://www.handle.net/python_licenses/python1.6_9-5-00.html)'
p635
S'SUSE-Python-1.6'
p636
sS'SIL Open Font License'
p637
S'OFL-1.1'
p638
sS'EUPL-1.0'
p639
S'EUPL-1.0'
p640
sS'EUPL-1.1'
p641
S'EUPL-1.1'
p642
sS'Zimbra-1.3'
p643
S'Zimbra-1.3'
p644
sS'EPL-1.0'
p645
S'EPL-1.0'
p646
sS'Ruby'
p647
S'Ruby'
p648
sS'GNU Free Documentation License, Version 1.2 (GFDL 1.2)'
p649
S'GFDL-1.2'
p650
sS'GPL-2.0 or later'
p651
S'GPL-2.0+'
p652
sS"Must not be copyleft. Must not contain patent clauses of any nature. Most not limit ability to copy, modifiy, distribute (through multiple tiers of distribution) and distribute modified versions. Must not impose obligations such as 'advertising clauses' or anything that could be viewed as an 'additional restriction' under GPL-2.0+ or GPL-3.0+. Must not impose obligations such as modification by patch only, or reciprocal clauses."
p653
S'SUSE-Permissive'
p654
sS'GNU GPL v3 or later'
p655
S'GPL-3.0+'
p656
sS'RPL-1.5'
p657
S'RPL-1.5'
p658
sS'CC-BY-SA-1.0'
p659
S'CC-BY-SA-1.0'
p660
sS'Fair'
p661
S'Fair'
p662
sS'ASLv2'
p663
S'Apache-2.0'
p664
sS'RSCPL'
p665
S'RSCPL'
p666
sS'GPL v2 or later  '
p667
S'GPL-2.0+'
p668
sS'FDL-1.3+'
p669
S'SUSE-GFDL-1.3+'
p670
sS'GPL v2 only'
p671
S'GPL-2.0'
p672
sS'BSD 2 Clause'
p673
S'BSD-2-Clause'
p674
sS'GFDL 1.1'
p675
S'GFDL-1.1'
p676
sS'GFDL 1.2'
p677
S'GFDL-1.2'
p678
sS'MirOS'
p679
S'MirOS'
p680
sS'GPL v2.0'
p681
S'GPL-2.0'
p682
sS'GPL 3'
p683
S'GPL-3.0'
p684
sS'OLDAP-2.8'
p685
S'OLDAP-2.8'
p686
sS'GPL-1.0'
p687
S'GPL-1.0'
p688
sS'Artistic License ..'
p689
S'Artistic-1.0'
p690
sS'ISC License'
p691
S'ISC'
p692
sS'GPL-3.0'
p693
S'GPL-3.0'
p694
sS'LPPL-1.0'
p695
S'LPPL-1.0'
p696
sS'LPPL-1.1'
p697
S'LPPL-1.1'
p698
sS'LPPL-1.2'
p699
S'LPPL-1.2'
p700
sS'GPL-2+'
p701
S'GPL-2.0+'
p702
sS'ZPL-1.1'
p703
S'ZPL-1.1'
p704
sS'Perl License'
p705
S'Artistic-1.0 or GPL-1.0+'
p706
sS'SUSE-Oasis-Specification-Notice'
p707
S'SUSE-Oasis-Specification-Notice'
p708
sS'LGPL2.1'
p709
S'LGPL-2.1'
p710
sS'Python Software Foundation License'
p711
S'Python-2.0'
p712
sS'MIT-Licence'
p713
S'MIT'
p714
sS'CC-BY-SA-3.0'
p715
S'CC-BY-SA-3.0'
p716
sS'CC-BY-NC-ND-2.5'
p717
S'CC-BY-NC-ND-2.5'
p718
sS'CC-BY-NC-ND-2.0'
p719
S'CC-BY-NC-ND-2.0'
p720
sS'BSD-4-Clause'
p721
S'BSD-4-Clause'
p722
sS'GNU Free Documentation License, Version 1.1 (GFDL 1.1)'
p723
S'GFDL-1.1'
p724
sS'Open Font License'
p725
S'OFL-1.1'
p726
sS'Gnuplot'
p727
S'SUSE-Gnuplot'
p728
sS'GPLv1+'
p729
S'GPL-1.0+'
p730
sS'Public Domain, Freeware'
p731
S'SUSE-Public-Domain'
p732
sS'EPL 1.0'
p733
S'EPL-1.0'
p734
sS'Apache License, Version 2.0'
p735
S'Apache-2.0'
p736
sS'Academic Free License 2.1'
p737
S'AFL-2.1'
p738
sS'X11/MIT'
p739
S'MIT'
p740
sS'LGPLv2.1+'
p741
S'LGPL-2.1+'
p742
sS'Python License ..'
p743
S'Python-2.0'
p744
sS'zlib/libpng License'
p745
S'Zlib'
p746
sS'LGPLv3+'
p747
S'LGPL-3.0+'
p748
sS'ANTLR-PD'
p749
S'ANTLR-PD'
p750
sS'Zlib'
p751
S'Zlib'
p752
sS'Python Copyright'
p753
S'Python-2.0'
p754
sS'MIT/X11'
p755
S'MIT'
p756
sS'MPLv1.1 ..'
p757
S'MPL-1.1'
p758
sS'Affero GPL'
p759
S'AGPL-3.0'
p760
sS'GPL2+'
p761
S'GPL-2.0+'
p762
sS'The PHP License, version 3.01'
p763
S'PHP-3.01'
p764
sS'PostgreSQL'
p765
S'PostgreSQL'
p766
sS"License for TCL (Fedora calls this TCL too. SPDX doesn't have it)"
p767
S'SUSE-TCL'
p768
sS'BSD2c'
p769
S'BSD-2-Clause'
p770
sS'NCSA'
p771
S'NCSA'
p772
s.